
BG_card_RTOS.adx:     file format elf32-nds32le
BG_card_RTOS.adx
architecture: n1h_v3, flags 0x00000112:
EXEC_P, HAS_SYMS, D_PAGED
start address 0x00000000

Program Header:
    LOAD off    0x00001000 vaddr 0x00000000 paddr 0x00000000 align 2**12
         filesz 0x00012210 memsz 0x00012210 flags r-x
    LOAD off    0x00014000 vaddr 0x20004000 paddr 0x00012220 align 2**12
         filesz 0x00000548 memsz 0x0000ae58 flags rw-
private flags = 36808a52: n1 instructions

Sections:
Idx Name          Size      VMA       LMA       File off  Algn
  0 .vector       000000a4  00000000  00000000  00001000  2**2
                  CONTENTS, ALLOC, LOAD, READONLY, CODE
  1 .stub_section 00000060  000000a4  000000a4  000010a4  2**1
                  CONTENTS, ALLOC, LOAD, READONLY, CODE
  2 .text_*spi_flash.o 000017c8  00000104  00000104  00001104  2**2
                  CONTENTS, ALLOC, LOAD, READONLY, CODE
  3 .rodata_*spi_flash.o 000000b4  000018cc  000018cc  000028cc  2**2
                  CONTENTS, ALLOC, LOAD, READONLY, DATA
  4 .startup_section 000004f4  00001980  00001980  00002980  2**2
                  CONTENTS, ALLOC, LOAD, READONLY, CODE
  5 .deepsleep_section 000001f0  00001e74  00001e74  00002e74  2**1
                  CONTENTS, ALLOC, LOAD, READONLY, CODE
  6 .tcm_section  000002c4  00002064  00002064  00003064  2**2
                  CONTENTS, ALLOC, LOAD, READONLY, CODE
  7 .driver.isr   0000065c  00002328  00002328  00003328  2**1
                  CONTENTS, ALLOC, LOAD, READONLY, CODE
  8 .text         0000bb4c  00002984  00002984  00003984  2**2
                  CONTENTS, ALLOC, LOAD, READONLY, CODE
  9 .rodata       00003d40  0000e4d0  0000e4d0  0000f4d0  2**3
                  CONTENTS, ALLOC, LOAD, READONLY, DATA
 10 .data         00000548  20004000  00012220  00014000  2**2
                  CONTENTS, ALLOC, LOAD, DATA
 11 .sbss_b       00000002  20004548  00012768  00014548  2**0
                  ALLOC
 12 .sbss_h       00000006  2000454a  0001276a  00014548  2**1
                  ALLOC
 13 .sbss_w       00000028  20004550  00012770  00014548  2**2
                  ALLOC
 14 .bss          0000a8e0  20004578  00012798  00014548  2**2
                  ALLOC
 15 .comment      0000002f  00000000  00000000  00014548  2**0
                  CONTENTS, READONLY
 16 .debug_aranges 000014f8  00000000  00000000  00014578  2**3
                  CONTENTS, READONLY, DEBUGGING
 17 .debug_info   00034536  00000000  00000000  00015a70  2**0
                  CONTENTS, READONLY, DEBUGGING
 18 .debug_abbrev 00004878  00000000  00000000  00049fa6  2**0
                  CONTENTS, READONLY, DEBUGGING
 19 .debug_line   0001ac0e  00000000  00000000  0004e81e  2**0
                  CONTENTS, READONLY, DEBUGGING
 20 .debug_frame  0000467c  00000000  00000000  0006942c  2**2
                  CONTENTS, READONLY, DEBUGGING
 21 .debug_str    00029a03  00000000  00000000  0006daa8  2**0
                  CONTENTS, READONLY, DEBUGGING
 22 .debug_loc    0001676e  00000000  00000000  000974ab  2**0
                  CONTENTS, READONLY, DEBUGGING
 23 .debug_ranges 00001688  00000000  00000000  000adc20  2**3
                  CONTENTS, READONLY, DEBUGGING
 24 .debug_macro  00006567  00000000  00000000  000af2a8  2**0
                  CONTENTS, READONLY, DEBUGGING
SYMBOL TABLE:
00000000 l    d  .vector	00000000 .vector
000000a4 l    d  .stub_section	00000000 .stub_section
00000104 l    d  .text_*spi_flash.o	00000000 .text_*spi_flash.o
000018cc l    d  .rodata_*spi_flash.o	00000000 .rodata_*spi_flash.o
00001980 l    d  .startup_section	00000000 .startup_section
00001e74 l    d  .deepsleep_section	00000000 .deepsleep_section
00002064 l    d  .tcm_section	00000000 .tcm_section
00002328 l    d  .driver.isr	00000000 .driver.isr
00002984 l    d  .text	00000000 .text
0000e4d0 l    d  .rodata	00000000 .rodata
20004000 l    d  .data	00000000 .data
20004548 l    d  .sbss_b	00000000 .sbss_b
2000454a l    d  .sbss_h	00000000 .sbss_h
20004550 l    d  .sbss_w	00000000 .sbss_w
20004578 l    d  .bss	00000000 .bss
00000000 l    d  .comment	00000000 .comment
00000000 l    d  .debug_aranges	00000000 .debug_aranges
00000000 l    d  .debug_info	00000000 .debug_info
00000000 l    d  .debug_abbrev	00000000 .debug_abbrev
00000000 l    d  .debug_line	00000000 .debug_line
00000000 l    d  .debug_frame	00000000 .debug_frame
00000000 l    d  .debug_str	00000000 .debug_str
00000000 l    d  .debug_loc	00000000 .debug_loc
00000000 l    d  .debug_ranges	00000000 .debug_ranges
00000000 l    d  .debug_macro	00000000 .debug_macro
00000000 l    df *ABS*	00000000 ./startup/crt0.o
00000000 l       .vector	00000000 exception_vector
00001e24 l       .startup_section	00000000 ___start
00001b5c l       .startup_section	00000000 OS_Trap_TLB_Fill
00001b6c l       .startup_section	00000000 OS_Trap_PTE_Not_Present
00001b7c l       .startup_section	00000000 OS_Trap_TLB_Misc
00001b8c l       .startup_section	00000000 OS_Trap_TLB_VLPT_Miss
00001b9c l       .startup_section	00000000 OS_Trap_Machine_Error
00001bac l       .startup_section	00000000 OS_Trap_Debug_Related
00001bbc l       .startup_section	00000000 OS_Trap_General_Exception
00001bcc l       .startup_section	00000000 OS_Trap_Syscall
00001cc6 l       .startup_section	00000000 OS_Trap_Interrupt_HW0
00001cd0 l       .startup_section	00000000 OS_Trap_Interrupt_HW1
00001cda l       .startup_section	00000000 OS_Trap_Interrupt_HW2
00001ce4 l       .startup_section	00000000 OS_Trap_Interrupt_HW3
00001cee l       .startup_section	00000000 OS_Trap_Interrupt_HW4
00001cf8 l       .startup_section	00000000 OS_Trap_Interrupt_HW5
00001d1e l       .startup_section	00000000 OS_Trap_Interrupt_HW6
00001d28 l       .startup_section	00000000 OS_Trap_Interrupt_HW7
00001d32 l       .startup_section	00000000 OS_Trap_Interrupt_HW8
00001d3c l       .startup_section	00000000 OS_Trap_Interrupt_HW9
00001d46 l       .startup_section	00000000 OS_Trap_Interrupt_HW10
00001d50 l       .startup_section	00000000 OS_Trap_Interrupt_HW11
00001d5a l       .startup_section	00000000 OS_Trap_Interrupt_HW12
00001d64 l       .startup_section	00000000 OS_Trap_Interrupt_HW13
00001d6e l       .startup_section	00000000 OS_Trap_Interrupt_HW14
00001d78 l       .startup_section	00000000 OS_Trap_Interrupt_HW15
00001d82 l       .startup_section	00000000 OS_Trap_Interrupt_HW16
00001d8c l       .startup_section	00000000 OS_Trap_Interrupt_HW17
00001d96 l       .startup_section	00000000 OS_Trap_Interrupt_HW18
00001da0 l       .startup_section	00000000 OS_Trap_Interrupt_HW19
00001daa l       .startup_section	00000000 OS_Trap_Interrupt_HW20
00001db4 l       .startup_section	00000000 OS_Trap_Interrupt_HW21
00001dbe l       .startup_section	00000000 OS_Trap_Interrupt_HW22
00001dc8 l       .startup_section	00000000 OS_Trap_Interrupt_HW23
00001dd2 l       .startup_section	00000000 OS_Trap_Interrupt_HW24
00001ddc l       .startup_section	00000000 OS_Trap_Interrupt_HW25
00001de6 l       .startup_section	00000000 OS_Trap_Interrupt_HW26
00001df0 l       .startup_section	00000000 OS_Trap_Interrupt_HW27
00001dfa l       .startup_section	00000000 OS_Trap_Interrupt_HW28
00001e04 l       .startup_section	00000000 OS_Trap_Interrupt_HW29
00001e0e l       .startup_section	00000000 OS_Trap_Interrupt_HW30
00001e18 l       .startup_section	00000000 OS_Trap_Interrupt_HW31
000000a4 l       .vector	00000000 exception_vector_end
00001ae0 l       .startup_section	00000000 ISR_TABLE
00001bdc l       .startup_section	00000000 OS_Trap_Int_Comm
00000000 l    df *ABS*	00000000 init-default.c
000074e2 l     F .text	00000002 Default_Handler
00000000 l    df *ABS*	00000000 spi_flash.c
00000104 l     F .text_*spi_flash.o	0000001c FlashXmcResumeTimeGet
2000c200 l     O .bss	00000001 XmcResumeCnt
00000120 l     F .text_*spi_flash.o	0000007c flash_udelay
0000019c l     F .text_*spi_flash.o	0000001a flash_delayms
000001b6 l     F .text_*spi_flash.o	00000022 FshcGpioSet
000001d8 l     F .text_*spi_flash.o	0000001a FshcInit
000001f2 l     F .text_*spi_flash.o	00000034 FshcSendCmd
00000226 l     F .text_*spi_flash.o	000002e8 FshcSpiIOModeCfg
0000050e l     F .text_*spi_flash.o	0000003c SpiFlashResetCRM
0000054a l     F .text_*spi_flash.o	00000034 SpiFlashResume
0000057e l     F .text_*spi_flash.o	00000034 SpiFlashSuspend
000005b2 l     F .text_*spi_flash.o	00000202 SpiFlashReadId
000018cc l     O .rodata_*spi_flash.o	000000b4 SpiFlash
000007b4 l     F .text_*spi_flash.o	000000a6 SpiFlashReadStatus
0000085a l     F .text_*spi_flash.o	0000001c SpiFlashIsBusy
00000876 l     F .text_*spi_flash.o	00000166 SpiFlashWriteStatus
000009dc l     F .text_*spi_flash.o	000000c2 SpiFlashIOModeCfg
2000c208 l     O .bss	00000001 EsmtFlag
00000a9e l     F .text_*spi_flash.o	00000030 SpiFlashDeepPowerDown
00000ace l     F .text_*spi_flash.o	00000020 SpiFlashReleaseFromDeepPowerDown
00000aee l     F .text_*spi_flash.o	00000164 SpiFlashWriteUnLock
00000c54 l     F .text_*spi_flash.o	00000170 SpiFlashWriteLock
00000dc4 l     F .text_*spi_flash.o	00000008 Flash_GIE_STATE_GET
2000c204 l     O .bss	00000004 FlashBusyFlag
00000df6 l     F .text_*spi_flash.o	00000010 Flash_Memset
00000f18 l     F .text_*spi_flash.o	0000002a flash_exit_2bitcrm
00000000 l    df *ABS*	00000000 ./middleware/rtos/freertos/src/os_cpu_a.o
00000000 l    df *ABS*	00000000 clk.c
00000000 l    df *ABS*	00000000 powercontroller.c
00000000 l    df *ABS*	00000000 gpio.c
00000000 l    df *ABS*	00000000 timeout.c
00000000 l    df *ABS*	00000000 timer.c
00000000 l    df *ABS*	00000000 portISR.c
00000000 l    df *ABS*	00000000 dma.c
00000000 l    df *ABS*	00000000 uarts.c
0000b584 l     F .text	00000056 UART_BaudClkGet
00000000 l    df *ABS*	00000000 adc_interface.c
00000000 l    df *ABS*	00000000 dac_interface.c
00000000 l    df *ABS*	00000000 spim_interface.c
00000000 l    df *ABS*	00000000 uarts_interface.c
00000000 l    df *ABS*	00000000 heap_5s.c
00002fa2 l     F .text	00000046 prvInsertBlockIntoFreeList
20004588 l     O .bss	00000014 xStart
20004584 l     O .bss	00000004 pxEnd
20004578 l     O .bss	00000004 xBlockAllocatedBit
20004580 l     O .bss	00000004 xFreeBytesRemaining
2000457c l     O .bss	00000004 xMinimumEverFreeBytesRemaining
2000459c l     O .bss	00000014 head
00000000 l    df *ABS*	00000000 list.c
00000000 l    df *ABS*	00000000 port.c
200045b4 l     O .bss	00000004 psw_0
00000000 l    df *ABS*	00000000 queue.c
00000000 l    df *ABS*	00000000 tasks.c
00003676 l     F .text	00000028 prvResetNextTaskUnblockTime
20004618 l     O .bss	00000004 pxDelayedTaskList
20004010 l     O .data	00000004 xNextTaskUnblockTime
0000369e l     F .text	0000001a prvDeleteTCB
000036b8 l     F .text	00000046 prvAllocateTCBAndStack
000036fe l     F .text	0000005c prvInitialiseTCBVariables
0000375a l     F .text	0000004e prvInitialiseTaskLists
20004644 l     O .bss	000000c8 pxReadyTasksLists
20004630 l     O .bss	00000014 xDelayedTaskList1
2000461c l     O .bss	00000014 xDelayedTaskList2
20004600 l     O .bss	00000014 xPendingReadyList
200045ec l     O .bss	00000014 xTasksWaitingTermination
20004614 l     O .bss	00000004 pxOverflowDelayedTaskList
200045e0 l     O .bss	00000004 xTickCount
200045e4 l     O .bss	00000004 uxCurrentNumberOfTasks
200045d8 l     O .bss	00000004 xSchedulerRunning
200045c8 l     O .bss	00000004 uxTaskNumber
200045dc l     O .bss	00000004 uxTopReadyPriority
200045e8 l     O .bss	00000004 uxTasksDeleted
200045c4 l     O .bss	00000004 uxSchedulerSuspended
00003bf0 l     F .text	0000001e prvIdleTask
200045cc l     O .bss	00000004 xNumOfOverflows
200045d4 l     O .bss	00000004 uxPendedTicks
200045d0 l     O .bss	00000004 xYieldPending
00003ba2 l     F .text	0000004e prvCheckTasksWaitingTermination
200045bc l     O .bss	00000004 ulTotalRunTime
200045c0 l     O .bss	00000004 ulTaskSwitchedInTime
00000000 l    df *ABS*	00000000 rtos_api.c
20004714 l     O .bss	00000004 IdleTaskCycle
20004710 l     O .bss	00000004 AllTaskCycle
00000000 l    df *ABS*	00000000 gui_tool.c
00000000 l    df *ABS*	00000000 bg_encoder.c
20004718 l     O .bss	00000004 encoder_range.3163
00000000 l    df *ABS*	00000000 bg_lcd.c
00000000 l    df *ABS*	00000000 st7735.c
00000000 l    df *ABS*	00000000 bg_flash_manager.c
00004964 l     F .text	00000004 address_to_block
00004968 l     F .text	00000006 block_to_address
000053f4 l     F .text	0000003a is_block_bad
00004f94 l     F .text	0000007c mark_block_as_bad
00004f5a l     F .text	0000003a save_bad_block_table
2000471c l     O .bss	00000220 bad_block_manager
0000513c l     F .text	000000d6 bad_block_manager_init
0000511c l     F .text	00000020 load_bad_block_table
00000000 l    df *ABS*	00000000 usb_audio_api.c
2000493c l     O .bss	00000004 FramCount
00000000 l    df *ABS*	00000000 audio_effect.c
00000000 l    df *ABS*	00000000 communication.c
00000000 l    df *ABS*	00000000 ctrlvars.c
00000000 l    df *ABS*	00000000 audio_looper.c
20004b3c l     O .bss	00000004 memory_write_pos
20004b38 l     O .bss	00000004 memory_read_pos
20004b34 l     O .bss	00000004 memory_data_length
20004b40 l     O .bss	00002580 memory_buffer
00000000 l    df *ABS*	00000000 main.c
20004138 l     O .data	0000001d DmaChannelMap
200089e8 l     O .bss	00000800 PcmBuf1
200079e8 l     O .bss	00000800 PcmBuf3
200081e8 l     O .bss	00000800 PcmBuf2
200071e8 l     O .bss	00000800 PcmBuf4
00000000 l    df *ABS*	00000000 interrupt.c
00000000 l    df *ABS*	00000000 retarget.c
00007862 l     F .text	0000000e GetPswINTL
00000000 l    df *ABS*	00000000 audio_adc.c
00000000 l    df *ABS*	00000000 chip_info.c
00000000 l    df *ABS*	00000000 core_d1088.c
00000000 l    df *ABS*	00000000 dac.c
00008b28 l     F .text	00000068 AudioDAC0_ChannelEnable
00008b90 l     F .text	00000044 AudioDAC1_ChannelEnable
00009038 l     F .text	000000fc AudioDAC0_PowerOn
2000c1fc l     O .bss	00000001 sIsDac0InitOK
00009134 l     F .text	000000b4 AudioDAC1_PowerOn
2000c1fb l     O .bss	00000001 sIsDac1InitOK
00000000 l    df *ABS*	00000000 efuse.c
00000000 l    df *ABS*	00000000 otg_detect.c
00000000 l    df *ABS*	00000000 otg_device_hcd.c
00000000 l    df *ABS*	00000000 remap.c
00000000 l    df *ABS*	00000000 spim.c
00000000 l    df *ABS*	00000000 watchdog.c
00000000 l    df *ABS*	00000000 reverb.c
000121d0 l     O .rodata	00000020 COMB_SIZE
00000000 l    df *ABS*	00000000 s_floor.c
00000000 l    df *ABS*	00000000 _divdi3.o
00000000 l    df *ABS*	00000000 _udivdi3.o
00000000 l    df *ABS*	00000000 _udivmoddi4.o
0000c5e4 l     F .text	00000058 fudiv_qrnnd
00000000 l    df *ABS*	00000000 _fixdfsi.o
00000000 l    df *ABS*	00000000 adddf3.c
00000000 l    df *ABS*	00000000 divdf3.c
00000000 l    df *ABS*	00000000 gedf2.c
00000000 l    df *ABS*	00000000 muldf3.c
00000000 l    df *ABS*	00000000 floatsidf.c
00000000 l    df *ABS*	00000000 lib_a-memcmp.o
00000000 l    df *ABS*	00000000 lib_a-memcpy.o
00000000 l    df *ABS*	00000000 lib_a-memset.o
00000000 l    df *ABS*	00000000 printf.c
00000000 l    df *ABS*	00000000 puts.c
00000000 l    df *ABS*	00000000 lib_a-strlen.o
00000000 l    df *ABS*	00000000 vprintf.c
0000d820 l     F .text	00000034 vprintf_help
2000c214 l     O .bss	00000004 output_idx
2000c218 l     O .bss	00000004 output_buff
00000000 l    df *ABS*	00000000 do_printf.c
00000000 l    df *ABS*	00000000 printf_f.c
0000dd48 l     F .text	00000032 sep_frac
00000000 l    df *ABS*	00000000 lib_a-strcpy.o
00000000 l    df *ABS*	00000000 abs.c
00000000 l    df *ABS*	00000000 _write.o
00000000 l    df *ABS*	00000000 libgcc2.c
00000000 l    df *ABS*	00000000 libgcc2.c
00000000 l    df *ABS*	00000000 page_manager.c
00000000 l    df *ABS*	00000000 otg_device_audio.c
00000000 l    df *ABS*	00000000 
00000000 l       *UND*	00000000 UART1Mutex
00000000 l       *UND*	00000000 AudioEffectVoiceChangerInit
00000000 l       *UND*	00000000 AudioEffectAutoTuneInit
00000000 l       *UND*	00000000 f_unlink
00000000 l       *UND*	00000000 AudioEffectAecInit
00000000 l       *UND*	00000000 __call_exitprocs
00000000 l       *UND*	00000000 f_close
00000000 l       *ABS*	00000000 NDS_SAG_LMA_EILM
00000000 l       *UND*	00000000 f_read
00000000 l       *UND*	00000000 UART0Mutex
00000000 l       *UND*	00000000 vocal_cut_apply
00000000 l       *ABS*	00000000 EILM_BEGIN
00000000 l       *UND*	00000000 CtxSave
00000000 l       *UND*	00000000 LoadAudioParamMutex
00000000 l       *UND*	00000000 radians
00000000 l       *UND*	00000000 MusicVolBuf
00000000 l       *UND*	00000000 f_lseek
00000000 l       *UND*	00000000 AudioEffectAutoTuneConfig
00000000 l       *UND*	00000000 f_write
00000000 l       *UND*	00000000 f_open
00002814 g     F .driver.isr	00000014 PastTimeGet
000064c4 g     F .text	000000a4 loop_init
00009002 g     F .text	00000036 AudioDAC_VmidChargeOp
00007872 g     F .text	00000090 putchar
0000784a g     F .text	00000018 NVIC_EnableIRQ
00004cfe g     F .text	0000001a flash_write
0000464e g     F .text	00000014 Lcd_SetXY
0000e44c g     F .text	00000012 strcpy
2000c21c g     O .bss	00000800 pcm_out_buf
0000b2bc g     F .text	0000000c SPIM_GetIntFlag
0000e4a8 g     F .text	00000026 .hidden __ashldi3
200041f4 g     O .data	0000032c DMAConfigTable
2000ca1c g     O .bss	00000050 UsbAudioSpeaker
00004216 g     F .text	00000128 gui_Circle
000021d0 g     F .tcm_section	00000052 DelayMs
000074e2  w    F .text	00000002 SpdifInterrupt
2000c1f9 g     O .bss	00000001 IsSwUartActedAsUARTFlag
00002222 g     F .tcm_section	00000050 __udelay
000087e0 g     F .text	0000015c Clock_AudioPllClockSet
0000c5a0 g     F .text	0000003e .hidden __divdi3
2000c20c g     O .bss	00000004 gSysTick
0000929c g     F .text	0000004a AudioDAC_IBSelect
00005bb2 g     F .text	0000003c PrivateMclkSet
200071e0 g     O .bss	00000001 spimMode
00003540 g     F .text	0000002a vPortExitCritical
00008a14 g     F .text	00000062 EnableMPU
00001120 g     F .text_*spi_flash.o	000002dc SpiFlashWrite
00007d26 g     F .text	00000036 AudioADC_FadeEnable
2000ca6c g     O .bss	00000800 usb_in_buff
0000d7b8 g     F .text	0000000a printf
20004118 g     O .data	00000020 eq_unit_aggregate
00008674 g     F .text	0000008e Clock_SysClkSelect
000064b8 g     F .text	0000000c loop_get_flash_device_id
000074e2  w    F .text	00000002 I2C_Interrupt
00002984 g     F .text	000001c2 AudioADC_DigitalInit
0000356a g     F .text	00000014 ulPortSetInterruptMask
20004178 g     O .data	00000001 key_flag
00001f76 g     F .deepsleep_section	000000ee Power_GotoDeepSleep
0000ba00 g     F .text	00000024 WDG_Disable
000016f4 g     F .text_*spi_flash.o	00000108 SpiFlashInit
00005c02 g     F .text	000002d6 DefaultParamgsInit
0000709e g     F .text	00000038 convertUint8ArrayToUint32Array
00003e08 g     F .text	0000001a Gui_DrawPoint
00005010 g     F .text	0000010c flash_ReadData
0000b358 g     F .text	000001b2 Timer_Config
2000d78c g     O .bss	00000050 eq_hfp_filter_buf
0000acd4 g     F .text	00000010 OTG_PortIsEnableDPPullUp
2000d7dc g     O .bss	00000050 eq3_filter_buf
00007de8 g     F .text	0000005e AudioADC_VolSet
0000496e g     F .text	00000024 flash_write_byte
00008ce2 g     F .text	00000014 AudioDAC_ZeroNumSet
00007870  w    F .text	00000002 SwUartSend
0000eb5c g     O .rodata	00000c80 gImage_qq
200041d4 g     O .data	00000020 DMADintTable
2000405c g     O .data	00000024 BG_lcd
20004000 g     O .data	00000008 UARTS_SendByte_MAP
000067e6 g     F .text	00000070 loop_clear_all_segments
000092e6 g     F .text	00000124 AudioDAC_AllPowerOn
00003ede g     F .text	0000003c Gui_ShowString
0000d228 g     F .text	000000a4 .hidden __gtdf2
000025a6 g     F .driver.isr	0000009a DMA4_Interrupt
2000470c g     O .bss	00000004 pxCurrentTCB
00002274 g     F .tcm_section	000000b2 Timer_InterruptFlagClear
00002b72 g     F .text	00000062 AudioADC_DataGet
000066ce g     F .text	00000118 loop_stop_current_segment
00003f1a g     F .text	0000005e Gui_ShowImage
00005728 g     F .text	00000070 AudioEffectReverbInit
0000c478 g     F .text	00000126 floor
00008786 g     F .text	0000002a Clock_Timer3ClkSelect
0000b2f2 g     F .text	0000002a SysTickInit
00008334 g     F .text	00000082 Clock_Config
000017fc g     F .text_*spi_flash.o	00000006 SpiFlashInfoGet
00007afa g     F .text	00000016 AudioADC_Clear
000074e2  w    F .text	00000002 BLE_Interrupt
000069de g     F .text	0000021e loop_process_recording_uint32
200071e4 g     O .bss	00000004 sectorAddress
00002ee2 g     F .text	0000003c SPIM_DMA_Send_Start
0000ac6c g     F .text	0000000e OTG_PortGetDP
0000b2da g     F .text	00000018 SPIM_SetDmaEn
00008c2e g     F .text	00000040 AudioDAC_DoutModeSet
2000c1e9 g     O .bss	00000001 UI_count
0000ad0a g     F .text	00000026 OTG_PortDisablePullDown
2000d82c g     O .bss	00000050 eq4_filter_buf
00008cb4 g     F .text	0000002e AudioDAC_DsmOutdisModeSet
000034ec g     F .text	00000018 xPortStartScheduler
0000406e g     F .text	00000006 get_encoder_mode
00008f7c g     F .text	00000040 AudioDAC_DigitalMute
0000d75c g     F .text	0000002c memcpy
000037a8 g     F .text	0000010c xTaskGenericCreate
0000d6b8 g     F .text	0000006a .hidden __floatsidf
0000782a g     F .text	0000000a GIE_ENABLE
0000d7c2 g     F .text	00000050 puts
2000c1fa g     O .bss	00000001 DebugPrintPort
00003184 g     F .text	0000006a vPortFree
000094b8 g     F .text	0000001e AudioDAC_ChannelEnable
00004662 g     F .text	0000009c gui_DrawLine
0000b0c2 g     F .text	00000030 Remap_InitTcm
00002e9e g     F .text	00000014 SPIM_DMA_Done_Clear
000083b6 g     F .text	0000001a WaitOscillateWork
00006fce g     F .text	00000092 spi_init
20004548 g     O .sbss_b	00000001 user_rLen
2000ee2c g     O .bss	00000018 FpUsbIntProcess
00012768 g       *ABS*	00000000 EILM_SIZE
000081ba g     F .text	00000022 AudioADC_MicBias1Enable
0000ad30 g     F .text	0000000c OTG_PortIsEnablePullDown
00003348 g     F .text	00000018 vListInsertEnd
000087b0 g     F .text	00000010 Clock_Module1Enable
0000441e g     F .text	00000070 DisplayButtonUp
00007ab0 g     F .text	00000014 AudioADC_HighPassFilterConfig
00008ee2 g     F .text	00000068 AudioDAC_FadeTimeSet
00008ab8 g     F .text	0000000a DataCacheInvalidAll
0000207c g     F .tcm_section	0000000a Clock_CoreClkDivGet
00004a12 g     F .text	000001e8 flash_ReadID
0000646e g     F .text	0000004a loop_reset
20004554 g     O .sbss_w	00000004 List
0000c63c g     F .text	00000158 .hidden __udivmoddi4
20004560 g     O .sbss_w	00000004 pUserData
00003e36 g     F .text	000000a8 Gui_ShowChar
00007740 g     F .text	000000a2 __cpu_init
00007922 g     F .text	00000024 DbgUartInit
00009542 g     F .text	00000054 DMA_InterruptFlagGet
20004520 g     O .data	0000001d DMAChannelAllocMap
000044b2 g     F .text	00000030 Lcd_WriteIndex
00004d94 g     F .text	0000005c flash_ReadStatusReg
0000b50c g     F .text	00000076 Timer_Start
000044e2 g     F .text	00000030 Lcd_WriteData
00000de0 g     F .text_*spi_flash.o	00000008 ClearFlashBusy
00003342 g     F .text	00000006 vListInitialiseItem
2000c1ea g     O .bss	00000001 right_flag
2000418c g     O .data	00000004 gAPLLWorkFreq
0000bed0 g     F .text	000005a6 reverb_apply
00002328 g     F .driver.isr	00000030 SystickInterrupt
00002eb2 g     F .text	00000030 SPIM_DMA_HalfDone
0000357e g     F .text	0000000a vPortClearInterruptMask
000074e2  w    F .text	00000002 GpioInterrupt
00007a66 g     F .text	0000004a AudioADC_Disable
20004b30 g     O .bss	00000001 effect_sum
00002828 g     F .driver.isr	00000020 TimeOutSet
000108d8 g     O .rodata	00000028 EXPANDER_DEFAULT_TABLE
0000c7e8 g     F .text	00000590 .hidden __adddf3
00007946 g     F .text	00000102 AudioADC_LREnable
00004d18 g     F .text	0000007c Windbond_GetCapacity
2000ee44 g     O .bss	00000012 SpiFlashInfo
00000f42 g     F .text_*spi_flash.o	0000001c ByteRecombineToDword
00005212 g     F .text	000001e2 flash_init
0000c5e0 g     F .text	00000004 .hidden __udivdi3
000074e2  w    F .text	00000002 SWInterrupt
000032da g     F .text	0000001c GetCurrentTaskHandle
000074e2  w    F .text	00000002 SDIO0_Interrupt
000028fe  w    F .driver.isr	00000086 UART1_Interrupt
20004188 g     O .data	00000004 gSOCInFreq
00002fe8 g     F .text	000000be pvPortMalloc
00008702 g     F .text	0000002c Clock_USBClkSelect
2000d87c g     O .bss	00000050 eq2_filter_buf
2000454a g     O .sbss_h	00000002 key_time
00007842 g     F .text	00000008 GIE_STATE_GET
00007e46 g     F .text	00000040 AudioADC_AnaInit
200049c8 g     O .bss	000000f0 effect_addr
00003414 g     F .text	0000001c vPortEndScheduler
000074e2  w    F .text	00000002 FFTInterrupt
0000454a g     F .text	00000060 Lcd_SetRegion
0000332e g     F .text	00000014 vListInitialise
00008cf6 g     F .text	00000084 AudioDAC_SampleRateGet
00006568 g     F .text	00000078 loop_set_flash_type
0000963c g     F .text	0000019e DMA_BlockConfig
00008c10 g     F .text	0000001e AudioDAC_ScrambleDisable
2000c1fd g     O .bss	00000001 OtgPortDetectPause
00004ce4 g     F .text	0000001a flash_read
0000d8a0 g     F .text	000004a6 do_printf
0000e56c g     O .rodata	000005f0 F8x16
000026da g     F .driver.isr	0000009a DMA6_Interrupt
0000407a g     F .text	00000012 get_encoder_range
000032f6 g     F .text	00000038 DeleteTaskMallocMem
000013fc g     F .text_*spi_flash.o	00000036 SpiFlashGetStatus
0000ad3c g     F .text	00000026 OTG_PortEnablePullUp500K
000020b0 g     F .tcm_section	0000006c Clock_CoreClockFreqGet
000083e2 g     F .text	000000a6 Clock_RcFreqGet
000074e2  w    F .text	00000002 IRInterrupt
000083d0 g     F .text	00000012 Clock_USBClkDivSet
00009216 g     F .text	0000002e AudioDAC_FuncReset
000065fe g     F .text	000000d0 loop_start_new_segment
00001980 g       .startup_section	00000000 OS_Trap_Interrupt_SWI
00002358 g     F .driver.isr	00000080 DMA0_Interrupt
00004512 g     F .text	00000038 LCD_WriteData_16Bit
00007808 g     F .text	00000022 __init
00004df0 g     F .text	00000046 flash_WaitForWriteEnd
0000c794 g     F .text	00000054 .hidden __fixdfsi
2000da5c g     O .bss	0000000c EffectChangeTimer
000020aa g     F .tcm_section	00000006 Clock_APllFreqGet
0000b028 g     F .text	0000009a Remap_AddrRemapSet
0000542e g     F .text	00000026 flash_IsSectorErased
000010a2 g     F .text_*spi_flash.o	0000007e SpiFlashEraseResume
20004194 g     O .data	00000020 DMAEintTable
2000a1e8 g     O .bss	00001000 AudioADC2Buf
000040fa g     F .text	0000009a encoder_buttun_state
00003cbc g     F .text	0000007e xTaskRemoveFromEventList
0000e480 g     F .text	00000028 .hidden __lshrdi3
200041b4 g     O .data	00000020 DMATintTable
00012054 g     O .rodata	000000e0 MPUConfigTable
000091e8 g     F .text	0000002e AudioDAC_ClkEnable
000074e4 g     F .text	00000228 ExceptionCommHandler
000065e0 g     F .text	0000001e loop_timer_update
00005ed8 g     F .text	00000596 CtrlVarsInit
0000d854 g     F .text	0000004c vprintf
20004544 g     O .data	00000001 OtgPortLinkState
0000b0f4 g     F .text	000000e6 SPIM_Init
00009496 g     F .text	00000022 AudioDAC_PowerOn
000094e8 g     F .text	0000002c DMA_ChannelEnable
20009728  w      .data	00000000 _FP_BASE_
000038b4 g     F .text	00000080 vTaskDelete
00008ec0 g     F .text	00000022 AudioDAC_Reset
20004940 g     O .bss	00000001 IsUsbAudioMode
00008d7a g     F .text	00000146 AudioDAC_SampleRateSet
00004608 g     F .text	00000046 showimage
000081dc g     F .text	00000060 AudioADC_DynamicElementMatch
2000d26c g     O .bss	00000050 UsbAudioMic
00004bfa g     F .text	000000ea flash_GetTotalByte
00008288 g     F .text	000000a0 Chip_Init
0000823c g     F .text	00000018 AudioADC_IsOverflow
00008488 g     F .text	000000f6 Clock_PllLock
200040e4 g     O .data	00000020 eq_param_aggregate
20004104 g     O .data	00000008 expander_unit_aggregate
00007060 g     F .text	0000003e convertUint32ArrayToUint8Array
000098bc g     F .text	000001e4 DMA_CircularConfig
0000dd7a g     F .text	000006d2 _printf_float
00002064 g     F .tcm_section	00000018 Clock_CoreClkDivSet
00008bd4 g     F .text	0000001e AudioDAC_Enable
2000d2bc g     O .bss	00000400 pcm_in_buf
00005aae g     F .text	00000080 GlobalSampeRateSet
0000b5da g     F .text	000001ce UART0_Init
0000ba24 g     F .text	00000348 reverb_init
000043ae g     F .text	00000070 DisplayButtonDown
00000000 g     F .vector	0000006c _start
2000c1ee g     O .bss	00000002 left_time
000032c6 g     F .text	00000014 GetIPSR
00003990 g     F .text	0000000c vTaskSuspendAll
0000ac7a g     F .text	0000000e OTG_PortGetDM
2000c1f2 g     O .bss	00000002 play
20004050 g     O .data	0000000a task_run
00003360 g     F .text	00000022 uxListRemove
0000399c g     F .text	00000022 pcTaskGetTaskName
20009728  w      .data	00000000 _SDA_BASE_
0000448e g     F .text	00000024 lcd_write_byte
20004540 g     O .data	00000001 OtgPortDeviceEnable
00008328 g     F .text	0000000c Chip_MemInit
0000b282 g     F .text	0000003a SPIM_DMAStart
00009dc2 g     F .text	000001a6 DMA_CircularDataGet
000049ee g     F .text	00000024 flash_read_byte
00002e70 g     F .text	0000002e AudioDAC_DataSet
00005798 g     F .text	0000001a AudioEffectReverbApply
000074e2  w    F .text	00000002 I2sInterrupt
00007834 g     F .text	0000000e GIE_DISABLE
00003e22 g     F .text	00000014 Gui_Circle
2000c1ff g     O .bss	00000001 UsbIntEn
2000da68 g     O .bss	00000020 user_rx_data
000055aa g     F .text	000000f8 flash_EraseAll
0000872e g     F .text	00000058 Clock_UARTClkSelect
00003c0e g     F .text	000000ae vTaskSwitchContext
00000f04 g     F .text_*spi_flash.o	00000014 SpiFlashClkSwitch
20004564 g     O .sbss_w	00000004 user_offset
000021ac g     F .tcm_section	00000010 GPIO_RegOneBitSet
000074e2  w    F .text	00000002 UART0_Interrupt
20004570 g     O .sbss_w	00000004 xQueue
000070d6 g     F .text	000000e0 audio_Init
00004074 g     F .text	00000006 get_encoder_value
0000d724 g     F .text	00000038 memcmp
00005454 g     F .text	00000080 flash_GetRemainingCapacity
0000b32a g     F .text	0000002c ClockFreqGet
0000cd78 g     F .text	000004b0 .hidden __divdf3
0000857e g     F .text	000000f6 Clock_APllLock
20004558 g     O .sbss_w	00000008 UsbSraObj
0000d2cc g     F .text	000003ec .hidden __muldf3
000045aa g     F .text	0000001e gui_DrawPoint
000094d6 g     F .text	00000012 DMA_ChannelAllocTableSet
00003d8a g     F .text	0000007e trace_TASK_SWITCHED_OUT
00002b46 g     F .text	0000002c AudioADC_DataLenGet
00003504 g     F .text	0000000e vPortYield
000056a2 g     F .text	00000086 UsbAudioTimer1msProcess
000074e2  w    F .text	00000002 Timer4Interrupt
00003d40 g     F .text	00000028 prvInitialiseHeap
00008276 g     F .text	00000012 Chip_VMIDDetectDisable
000077e2 g     F .text	00000026 HardwareStackProtectEnable
00000dcc g     F .text_*spi_flash.o	0000000c IsFlashBusy
20004158 g     O .data	00000020 spimIO
00000000  w      .vector	00000000 _RELAX_END_
00006f0e g     F .text	000000c0 Timer2Interrupt
00001608 g     F .text_*spi_flash.o	000000ec FlashErase
20004548 g       .sbss_b	00000000 __bss_start
00006856 g     F .text	00000116 loop_handle_button_press
0000d788 g     F .text	0000002e memset
2000494c g     O .bss	00000004 communic_buf_w
000107d8 g     O .rodata	00000100 GAIN_CONTROL_TABLE
000041aa g     F .text	0000006c lcd_init
000073aa g     F .text	00000138 main
0000696c g     F .text	00000072 loop_update_auto_test
0000b1dc g     F .text	000000a6 SPIM_IoConfig
00008f4a g     F .text	00000032 AudioDAC_FadeEnable
000074e2  w    F .text	00000002 Timer6Interrupt
00002f6c g     F .text	00000012 UART1_InitWpr
20004948 g     O .bss	00000004 usb_speaker_enable
00009256 g     F .text	00000046 AudioDAC_SCFMute
00003d7c g     F .text	0000000e trace_TASK_SWITCHED_IN
00007ac4 g     F .text	00000036 AudioADC_HighPassFilterSet
2000c1eb g     O .bss	00000001 left_flag
2000d8cc g     O .bss	00000050 eq5_filter_buf
0000b9c0 g     F .text	00000040 UART1_SendByte
0000433e g     F .text	00000070 Gui_box
20004ab8 g     O .bss	00000078 effect_list
000087c0 g     F .text	00000010 Clock_Module2Enable
2000b1e8 g     O .bss	00001000 AudioADC1Buf
2000c1f0 g     O .bss	00000002 time
000097da g     F .text	000000e2 DMA_BlockBufSet
2000c1ec g     O .bss	00000002 right_time
00009fe2 g     F .text	00000c8a GPIO_PortAModeSet
20004944 g     O .bss	00000004 usb_mic_enable
2000410c g     O .data	0000000c drc_unit_aggregate
20004542 g     O .data	00000002 OtgPortDeviceSofTimeOut
200091e8 g     O .bss	00001000 AudioDACBuf
00003d3a g     F .text	00000006 xTaskGetCurrentTaskHandle
000045c8 g     F .text	00000040 Lcd_Clear
00003588  w    F .text	00000012 vPortISRStartFirstTask
00007b94 g     F .text	00000136 AudioADC_SampleRateSet
00009514 g     F .text	0000002e DMA_ChannelDisable
00003616 g     F .text	00000060 xQueueGenericCreate
2000d6bc g     O .bss	00000010 usb_speak_buff
000087d0 g     F .text	00000010 Clock_Module3Enable
00008fbc g     F .text	00000046 AudioDAC_VolSet
00002f5a g     F .text	00000012 UART0_InitWpr
000030a6 g     F .text	000000de pvPortMallocFromEnd
2000c210 g     O .bss	00000004 _NDS32_REENT__errno
000071b6 g     F .text	000001f4 EffectTask
00002640 g     F .driver.isr	0000009a DMA5_Interrupt
20004550 g     O .sbss_w	00000004 SysemMipsPercent
00009f68 g     F .text	00000066 Efuse_ReadData
00007b10 g     F .text	00000084 AudioADC_SampleRateGet
000031ee g     F .text	000000d8 vPortDefineHeapRegions
00000de8 g     F .text_*spi_flash.o	0000000c Fshc_WDG_Feed
000074e2  w    F .text	00000002 WakeupInterrupt
00002472 g     F .driver.isr	0000009a DMA2_Interrupt
00009d90 g     F .text	00000032 DMA_CircularReadPtrSet
0000405c g     F .text	00000012 set_encoder_value
00009bf2 g     F .text	00000034 DMA_CircularWritePtrSet
0000408c g     F .text	0000006e encoder_button_init
00003ad0 g     F .text	000000d2 xTaskResumeAll
20004183 g     O .data	00000001 IsDpllFreeRun
20004014 g     O .data	0000001c BGUI_tool
00010900 g     O .rodata	000000e4 DRC_DEFAULT_TABLE
00003934 g     F .text	0000005c vTaskStartScheduler
0000ac88 g     F .text	00000026 OTG_PortEnableDPPullUp
20004030 g     O .data	00000020 BG_encoder
20004180 g     O .data	00000002 BtHoscClkDiv
000074e2  w    F .text	00000002 SPIS_Interrupt
2000c1e8 g     O .bss	00000001 UI_flag
00003382 g       .text	00000000 CtxRestore
00003f78 g     F .text	00000014 Gui_DrawLine
20004568 g     O .sbss_w	00000008 cbuf
0000280e g     F .driver.isr	00000006 GetSysTick1MsCnt
000054d4 g     F .text	000000d6 flash_SectorErase
00002848 g     F .driver.isr	00000030 IsTimeOut
00004992 g     F .text	0000005c flash_WriteEnable
0000b31c g     F .text	0000000e SysTimerIntFlagClear
2000da88 g     O .bss	00000200 communic_buf
0000b980 g     F .text	00000040 UART0_SendByte
2000454c g     O .sbss_h	00000002 OtgPortDeviceDetectTime
00008c6e g     F .text	00000046 AudioDAC_EdgeSet
000039be g     F .text	00000112 xTaskIncrementTick
20004080 g     O .data	00000024 BG_flash_manager
000000a4 g     F .stub_section	00000060 stub
0000211c g     F .tcm_section	00000036 Clock_SysClockFreqGet
00002f1e g     F .text	0000003c SPIM_DMA_Recv_Start
2000d91c g     O .bss	00000050 eq8_filter_buf
200070c0 g     O .bss	00000120 g_loop_manager
2000d96c g     O .bss	00000050 eq7_filter_buf
00000000  w      *ABS*	00000000 _ITB_BASE_
00002086 g     F .tcm_section	0000001e Clock_SysClkDivGet
00004194 g     F .text	00000016 enter_button_state
00012220 g       *ABS*	00000000 __data_lmastart
0000359a g     F .text	0000007c xQueueGenericReset
0000804e g     F .text	0000016c AudioADC_PGAGainSet
0000e468 g     F .text	00000018 _write
00002152 g     F .tcm_section	0000005a Clock_SysClkDivSet
200045b8 g     O .bss	00000004 ulCriticalNesting
20004548 g       .sbss_b	00000000 _edata
2000ee58 g       .bss	00000000 _end
00008ac2 g     F .text	00000066 DataCacheRangeInvalid
200045b0 g     O .bss	00000004 psw_1
00000e06 g     F .text_*spi_flash.o	0000008a FshcClkSwitch
20004008 g     O .data	00000008 UARTS_Init_MAP
00002f90 g     F .text	00000012 UART1_SendByteWpr
00008254 g     F .text	00000022 AudioADC_OverflowClear
00002e34 g     F .text	0000003c AudioDAC_DataSpaceLenGet
000046fe g     F .text	00000266 st7735_init
00009244 g     F .text	00000012 AudioDAC_VIMDControl
2000454e g     O .sbss_h	00000002 OtgPortLinkHoldTime
00009596 g     F .text	000000a6 DMA_InterruptFlagClear
00001804 g     F .text_*spi_flash.o	000000c6 SpiFlashIOCtrl
0000770c g     F .text	00000034 __c_init
0000bd6c g     F .text	00000164 reverb_configure
00000f5e g     F .text_*spi_flash.o	00000144 SpiFlashRead
20004182 g     O .data	00000001 IsApllFreeRun
000057b2 g     F .text	000002fc Communication_Effect_Init
00002f7e g     F .text	00000012 UART0_SendByteWpr
2000d6cc g     O .bss	000000c0 iso_buf
0000ad88 g     F .text	00000242 OTG_PortLinkCheck
000074e2  w    F .text	00000002 RtcInterrupt
00000dd8 g     F .text_*spi_flash.o	00000008 SetFlashBusy
000074e2  w    F .text	00000002 BT_Interrupt
00008a76 g     F .text	00000042 EnableIDCache
00003d68 g     F .text	00000012 osPortMallocFromEnd_1
00001432 g     F .text_*spi_flash.o	0000004c SpiFlashFshcStatusSetIdle
000109e4 g     O .rodata	00000260 EQ_DEFAULT_TABLE
2000c1f4 g     O .bss	00000002 rea
000023d8 g     F .driver.isr	0000009a DMA1_Interrupt
00010c44 g     O .rodata	00000034 SupportSampleRateList
00007e86 g     F .text	000001c8 AudioADC_PGASel
0000ad62 g     F .text	00000026 OTG_PortDisablePullUp500K
00001e74 g     F .deepsleep_section	00000102 Clock_DeepSleepSysClkSelect
00004e36 g     F .text	00000124 flash_PageProgram
20004190 g     O .data	00000004 gPLLWorkFreq
000074e2  w    F .text	00000002 SPIM_Interrupt
2000c1f6 g     O .bss	00000002 rec
00009b12 g     F .text	000000e0 DMA_CircularSpaceLenGet
00004034 g     F .text	00000028 set_encoder_range
00009c26 g     F .text	0000016a DMA_CircularDataPut
0000d814 g     F .text	0000000c strlen
00003430 g     F .text	000000bc pxPortInitialiseStack
00009fce g     F .text	00000014 GPIO_RegOneBitGet
0000d228 g     F .text	000000a4 .hidden __gedf2
20004000 g       *ABS*	00000000 _stack
2000417c g     O .data	00000004 gSramEndAddr
2000dd78 g     O .bss	000010b4 gCtrlVars
00007d5c g     F .text	0000008c AudioADC_SoftMute
00002774 g     F .driver.isr	0000009a DMA7_Interrupt
0000250c g     F .driver.isr	0000009a DMA3_Interrupt
2000d9bc g     O .bss	00000050 eq1_filter_buf
0000e460 g     F .text	00000006 abs
00005b2e g     F .text	00000084 GlobalMclkSet
0000acae g     F .text	00000026 OTG_PortDisableDPPullUp
00003512 g     F .text	0000002e vPortEnterCritical
0000ace4 g     F .text	00000026 OTG_PortEnablePullDown
20004000 g       .data	00000000 __data_start
00007cca g     F .text	0000005c AudioADC_FadeTimeSet
0000147e g     F .text_*spi_flash.o	0000018a SpiFlashErase
0000b2c8 g     F .text	00000012 SPIM_ClrIntFlag
20004950 g     O .bss	00000078 effect_list_addr
00007902 g     F .text	00000020 nds_write
2000da0c g     O .bss	00000050 eq6_filter_buf
000020a4 g     F .tcm_section	00000006 Clock_PllFreqGet
00006bfc g     F .text	00000312 loop_process_playback_uint32
00009aa0 g     F .text	00000072 DMA_CircularDataLenGet
00003f8c g     F .text	000000a8 Gui_ShowNum
00000e90 g     F .text_*spi_flash.o	00000074 SpiFlashResumDelaySet
20004184 g     O .data	00000004 rc_clk_freq
2000c1f8 g     O .bss	00000001 play_flag
0000b7a8 g     F .text	000001d8 UART1_Init
200040a4 g     O .data	00000040 gain_unit_aggregate
00008bf2 g     F .text	0000001e AudioDAC_DitherDisable
200071e1 g     O .bss	00000001 spimRate
2000c1fe g     O .bss	00000001 gIsUsbRemove_USB1
20004541 g     O .data	00000001 OtgPortHostEnable
000074e2  w    F .text	00000002 Timer5Interrupt
0000afcc g     F .text	0000005c UsbInterrupt
00005bee g     F .text	00000014 Line3MicPinSet
00002bd4 g     F .text	00000260 AudioDAC_Init
000074e2  w    F .text	00000002 Timer3Interrupt
0000893c g     F .text	000000d8 Clock_AudioMclkSel
000021bc g     F .tcm_section	00000012 GPIO_RegOneBitClear
0000940a g     F .text	0000008c AudioDAC_AllChannelEnable
2000dc88 g     O .bss	000000f0 eff_addr_compare
00003d7a g     F .text	00000002 vApplicationIdleHook
00007a48 g     F .text	0000001e AudioADC_Enable



Disassembly of section .vector:

00000000 <_start>:
   0:	48 00 0f 12 	j 1e24 <___start>
   4:	48 00 0d ac 	j 1b5c <OS_Trap_TLB_Fill>
   8:	48 00 0d b2 	j 1b6c <OS_Trap_PTE_Not_Present>
   c:	48 00 0d b8 	j 1b7c <OS_Trap_TLB_Misc>
  10:	48 00 0d be 	j 1b8c <OS_Trap_TLB_VLPT_Miss>
  14:	48 00 0d c4 	j 1b9c <OS_Trap_Machine_Error>
  18:	48 00 0d ca 	j 1bac <OS_Trap_Debug_Related>
  1c:	48 00 0d d0 	j 1bbc <OS_Trap_General_Exception>
  20:	48 00 0d d6 	j 1bcc <OS_Trap_Syscall>
  24:	48 00 0e 51 	j 1cc6 <OS_Trap_Interrupt_HW0>
  28:	48 00 0e 54 	j 1cd0 <OS_Trap_Interrupt_HW1>
  2c:	48 00 0e 57 	j 1cda <OS_Trap_Interrupt_HW2>
  30:	48 00 0e 5a 	j 1ce4 <OS_Trap_Interrupt_HW3>
  34:	48 00 0e 5d 	j 1cee <OS_Trap_Interrupt_HW4>
  38:	48 00 0e 60 	j 1cf8 <OS_Trap_Interrupt_HW5>
  3c:	48 00 0e 71 	j 1d1e <OS_Trap_Interrupt_HW6>
  40:	48 00 0e 74 	j 1d28 <OS_Trap_Interrupt_HW7>
  44:	48 00 0e 77 	j 1d32 <OS_Trap_Interrupt_HW8>
  48:	48 00 0e 7a 	j 1d3c <OS_Trap_Interrupt_HW9>
  4c:	48 00 0e 7d 	j 1d46 <OS_Trap_Interrupt_HW10>
  50:	48 00 0e 80 	j 1d50 <OS_Trap_Interrupt_HW11>
  54:	48 00 0e 83 	j 1d5a <OS_Trap_Interrupt_HW12>
  58:	48 00 0e 86 	j 1d64 <OS_Trap_Interrupt_HW13>
  5c:	48 00 0e 89 	j 1d6e <OS_Trap_Interrupt_HW14>
  60:	48 00 0e 8c 	j 1d78 <OS_Trap_Interrupt_HW15>
  64:	48 00 0e 8f 	j 1d82 <OS_Trap_Interrupt_HW16>
  68:	48 00 0e 92 	j 1d8c <OS_Trap_Interrupt_HW17>
  6c:	48 00 0e 95 	j 1d96 <OS_Trap_Interrupt_HW18>
  70:	48 00 0e 98 	j 1da0 <OS_Trap_Interrupt_HW19>
  74:	48 00 0e 9b 	j 1daa <OS_Trap_Interrupt_HW20>
  78:	48 00 0e 9e 	j 1db4 <OS_Trap_Interrupt_HW21>
  7c:	48 00 0e a1 	j 1dbe <OS_Trap_Interrupt_HW22>
  80:	48 00 0e a4 	j 1dc8 <OS_Trap_Interrupt_HW23>
  84:	48 00 0e a7 	j 1dd2 <OS_Trap_Interrupt_HW24>
  88:	48 00 0e aa 	j 1ddc <OS_Trap_Interrupt_HW25>
  8c:	48 00 0e ad 	j 1de6 <OS_Trap_Interrupt_HW26>
  90:	48 00 0e b0 	j 1df0 <OS_Trap_Interrupt_HW27>
  94:	48 00 0e b3 	j 1dfa <OS_Trap_Interrupt_HW28>
  98:	48 00 0e b6 	j 1e04 <OS_Trap_Interrupt_HW29>
  9c:	48 00 0e b9 	j 1e0e <OS_Trap_Interrupt_HW30>
  a0:	48 00 0e bc 	j 1e18 <OS_Trap_Interrupt_HW31>

Disassembly of section .stub_section:

000000a4 <stub>:
  a4:	ff ff       	or33 $r7,$r7
  a6:	ff ff       	or33 $r7,$r7
  a8:	ff ff       	or33 $r7,$r7
  aa:	ff ff       	or33 $r7,$r7
  ac:	ff ff       	or33 $r7,$r7
  ae:	ff ff       	or33 $r7,$r7
  b0:	00 00 10 00 	lbi $r0,[$r0+#0x1000]
  b4:	00 00 1d 00 	lbi $r0,[$r0+#0x1d00]
  b8:	01 00 00 01 	lbi $r16,[$r0+#0x1]
  bc:	ff ff       	or33 $r7,$r7
  be:	ff ff       	or33 $r7,$r7
  c0:	c9 bd       	bnez38 $r1,3a <_ITB_BASE_+0x3a>
  c2:	be b0       	swi37 $r6,[$fp+#0xc0]
  c4:	06 07 00 00 	*unknown*
  c8:	ff ff       	or33 $r7,$r7
  ca:	ff ff       	or33 $r7,$r7
  cc:	ff ff       	or33 $r7,$r7
  ce:	ff ff       	or33 $r7,$r7
  d0:	ff ff       	or33 $r7,$r7
  d2:	ff ff       	or33 $r7,$r7
  d4:	46 48 44 03 	sethi $r4,#0x84403
  d8:	ff ff       	or33 $r7,$r7
  da:	ff ff       	or33 $r7,$r7
  dc:	ff ff       	or33 $r7,$r7
  de:	ff ff       	or33 $r7,$r7
  e0:	ff ff       	or33 $r7,$r7
  e2:	ff ff       	or33 $r7,$r7
  e4:	ff ff       	or33 $r7,$r7
  e6:	ff ff       	or33 $r7,$r7
  e8:	ff ff       	or33 $r7,$r7
  ea:	ff ff       	or33 $r7,$r7
  ec:	ff ff       	or33 $r7,$r7
  ee:	ff ff       	or33 $r7,$r7
  f0:	ff ff       	or33 $r7,$r7
  f2:	ff ff       	or33 $r7,$r7
  f4:	ff ff       	or33 $r7,$r7
  f6:	ff ff       	or33 $r7,$r7
  f8:	ff ff       	or33 $r7,$r7
  fa:	ff ff       	or33 $r7,$r7
  fc:	ff ff       	or33 $r7,$r7
  fe:	ff 00       	*unknown*
 100:	ff ff       	or33 $r7,$r7
 102:	dd 9e       	ret5 $lp

Disassembly of section .text_*spi_flash.o:

00000104 <FlashXmcResumeTimeGet>:
     104:	2e 00 2a d8 	lbi.gp $r0,[+#0x2ad8]
     108:	8c 01       	addi45 $r0,#0x1
     10a:	96 00       	zeb33 $r0,$r0
     10c:	3e 00 2a d8 	sbi.gp $r0,[+#0x2ad8]
     110:	96 04       	xlsb33 $r0,$r0
     112:	c0 04       	beqz38 $r0,11a <FlashXmcResumeTimeGet+0x16>
     114:	44 00 00 64 	movi $r0,#0x64
     118:	dd 9e       	ret5 $lp
     11a:	44 00 00 c8 	movi $r0,#0xc8
     11e:	dd 9e       	ret5 $lp

00000120 <flash_udelay>:
     120:	ef f8       	addi10.sp #-8
     122:	fa 31       	movpi45 $r1,#0x21
     124:	fe 44       	mul33 $r1,$r0
     126:	f1 81       	swi37.sp $r1,[+#0x4]
     128:	46 14 00 21 	sethi $r1,#0x40021
     12c:	04 10 80 09 	lwi $r1,[$r1+#0x24]
     130:	96 4c       	xlsb33 $r1,$r1
     132:	c1 0e       	beqz38 $r1,14e <flash_udelay+0x2e>
     134:	46 14 00 21 	sethi $r1,#0x40021
     138:	04 10 80 09 	lwi $r1,[$r1+#0x24]
     13c:	42 10 84 0b 	btst $r1,$r1,#0x1
     140:	c9 04       	bnez38 $r1,148 <flash_udelay+0x28>
     142:	3c 3d ea 9a 	lwi.gp $r3,[+#-21912]
     146:	d5 08       	j8 156 <flash_udelay+0x36>
     148:	3c 3d ea 99 	lwi.gp $r3,[+#-21916]
     14c:	d5 05       	j8 156 <flash_udelay+0x36>
     14e:	46 10 0b 71 	sethi $r1,#0xb71
     152:	50 30 8b 00 	addi $r3,$r1,#0xb00
     156:	46 14 00 21 	sethi $r1,#0x40021
     15a:	a0 8a       	lwi333 $r2,[$r1+#0x8]
     15c:	8c 41       	addi45 $r2,#0x1
     15e:	40 11 88 37 	divr $r1,$r1,$r3,$r2
     162:	46 24 31 bd 	sethi $r2,#0x431bd
     166:	50 21 0e 83 	addi $r2,$r2,#0xe83
     16a:	42 20 88 69 	mulr64 $r2,$r1,$r2
     16e:	40 11 c8 09 	srli $r1,$r3,#0x12
     172:	fe 0c       	mul33 $r0,$r1
     174:	84 2a       	movi55 $r1,#0xa
     176:	fe 44       	mul33 $r1,$r0
     178:	46 02 f1 49 	sethi $r0,#0x2f149
     17c:	50 00 09 03 	addi $r0,$r0,#0x903
     180:	42 00 80 69 	mulr64 $r0,$r1,$r0
     184:	40 00 90 09 	srli $r0,$r1,#0x4
     188:	f0 81       	swi37.sp $r0,[+#0x4]
     18a:	d5 04       	j8 192 <flash_udelay+0x72>
     18c:	f0 01       	lwi37.sp $r0,[+#0x4]
     18e:	8e 01       	subi45 $r0,#0x1
     190:	f0 81       	swi37.sp $r0,[+#0x4]
     192:	f0 01       	lwi37.sp $r0,[+#0x4]
     194:	4e 06 ff fc 	bgtz $r0,18c <flash_udelay+0x6c>
     198:	ec 08       	addi10.sp #0x8
     19a:	dd 9e       	ret5 $lp

0000019c <flash_delayms>:
     19c:	3a 6f 98 bc 	smw.adm $r6,[$sp],$r6,#0x2    ! {$r6, $lp}
     1a0:	d5 06       	j8 1ac <flash_delayms+0x10>
     1a2:	44 00 03 e8 	movi $r0,#0x3e8
     1a6:	49 ff ff bd 	jal 120 <flash_udelay>
     1aa:	80 06       	mov55 $r0,$r6
     1ac:	9f 81       	subi333 $r6,$r0,#0x1
     1ae:	c8 fa       	bnez38 $r0,1a2 <flash_delayms+0x6>
     1b0:	3a 6f 98 84 	lmw.bim $r6,[$sp],$r6,#0x2    ! {$r6, $lp}
     1b4:	dd 9e       	ret5 $lp

000001b6 <FshcGpioSet>:
     1b6:	5a 08 02 10 	bnec $r0,#0x2,1d6 <FshcGpioSet+0x20>
     1ba:	46 04 00 10 	sethi $r0,#0x40010
     1be:	00 20 00 c8 	lbi $r2,[$r0+#0xc8]
     1c2:	44 1f ff 80 	movi $r1,#-128
     1c6:	fe 8f       	or33 $r2,$r1
     1c8:	10 20 00 c8 	sbi $r2,[$r0+#0xc8]
     1cc:	00 20 00 cc 	lbi $r2,[$r0+#0xcc]
     1d0:	fe 57       	or33 $r1,$r2
     1d2:	10 10 00 cc 	sbi $r1,[$r0+#0xcc]
     1d6:	dd 9e       	ret5 $lp

000001d8 <FshcInit>:
     1d8:	46 14 00 07 	sethi $r1,#0x40007
     1dc:	c0 06       	beqz38 $r0,1e8 <FshcInit+0x10>
     1de:	a0 0a       	lwi333 $r0,[$r1+#0x8]
     1e0:	58 00 00 01 	ori $r0,$r0,#0x1
     1e4:	a8 0a       	swi333 $r0,[$r1+#0x8]
     1e6:	dd 9e       	ret5 $lp
     1e8:	a0 0a       	lwi333 $r0,[$r1+#0x8]
     1ea:	66 00 00 01 	bitci $r0,$r0,#0x1
     1ee:	a8 0a       	swi333 $r0,[$r1+#0x8]
     1f0:	dd 9e       	ret5 $lp

000001f2 <FshcSendCmd>:
     1f2:	46 54 00 07 	sethi $r5,#0x40007
     1f6:	a8 2c       	swi333 $r0,[$r5+#0x10]
     1f8:	94 4e       	slli333 $r1,$r1,#0x6
     1fa:	fe 8f       	or33 $r2,$r1
     1fc:	a8 ae       	swi333 $r2,[$r5+#0x18]
     1fe:	a8 ef       	swi333 $r3,[$r5+#0x1c]
     200:	a9 2b       	swi333 $r4,[$r5+#0xc]
     202:	84 21       	movi55 $r1,#0x1
     204:	14 12 80 08 	swi $r1,[$r5+#0x20]
     208:	46 04 00 30 	sethi $r0,#0x40030
     20c:	84 40       	movi55 $r2,#0x0
     20e:	b6 40       	swi450 $r2,[$r0]
     210:	b6 20       	swi450 $r1,[$r0]
     212:	84 22       	movi55 $r1,#0x2
     214:	b6 20       	swi450 $r1,[$r0]
     216:	cc 07       	bnez38 $r4,224 <FshcSendCmd+0x32>
     218:	46 04 00 07 	sethi $r0,#0x40007
     21c:	04 00 00 0b 	lwi $r0,[$r0+#0x2c]
     220:	96 04       	xlsb33 $r0,$r0
     222:	c8 fb       	bnez38 $r0,218 <FshcSendCmd+0x26>
     224:	dd 9e       	ret5 $lp

00000226 <FshcSpiIOModeCfg>:
     226:	c1 0d       	beqz38 $r1,240 <FshcSpiIOModeCfg+0x1a>
     228:	c0 0c       	beqz38 $r0,240 <FshcSpiIOModeCfg+0x1a>
     22a:	2e 10 57 1c 	lbi.gp $r1,[+#0x571c]
     22e:	96 48       	zeb33 $r1,$r1
     230:	5a 18 c8 08 	bnec $r1,#0xc8,240 <FshcSpiIOModeCfg+0x1a>
     234:	84 60       	movi55 $r3,#0x0
     236:	46 14 00 07 	sethi $r1,#0x40007
     23a:	14 30 80 11 	swi $r3,[$r1+#0x44]
     23e:	d5 08       	j8 24e <FshcSpiIOModeCfg+0x28>
     240:	46 14 00 07 	sethi $r1,#0x40007
     244:	84 61       	movi55 $r3,#0x1
     246:	14 30 80 11 	swi $r3,[$r1+#0x44]
     24a:	14 30 80 13 	swi $r3,[$r1+#0x4c]
     24e:	46 44 00 07 	sethi $r4,#0x40007
     252:	04 32 00 10 	lwi $r3,[$r4+#0x40]
     256:	46 1f f0 ff 	sethi $r1,#0xff0ff
     25a:	50 10 8f ff 	addi $r1,$r1,#0xfff
     25e:	fe 5e       	and33 $r1,$r3
     260:	46 30 07 00 	sethi $r3,#0x700
     264:	fe 5f       	or33 $r1,$r3
     266:	14 12 00 10 	swi $r1,[$r4+#0x40]
     26a:	2e 10 57 1c 	lbi.gp $r1,[+#0x571c]
     26e:	96 48       	zeb33 $r1,$r1
     270:	5a 10 51 13 	beqc $r1,#0x51,296 <FshcSpiIOModeCfg+0x70>
     274:	5c f0 80 52 	slti $r15,$r1,#0x52
     278:	e8 07       	beqzs8 286 <FshcSpiIOModeCfg+0x60>
     27a:	5a 18 1c 04 	bnec $r1,#0x1c,282 <FshcSpiIOModeCfg+0x5c>
     27e:	48 00 00 8d 	j 398 <FshcSpiIOModeCfg+0x172>
     282:	48 00 00 e2 	j 446 <FshcSpiIOModeCfg+0x220>
     286:	5a 18 c2 04 	bnec $r1,#0xc2,28e <FshcSpiIOModeCfg+0x68>
     28a:	48 00 00 87 	j 398 <FshcSpiIOModeCfg+0x172>
     28e:	5a 10 c8 32 	beqc $r1,#0xc8,2f2 <FshcSpiIOModeCfg+0xcc>
     292:	48 00 00 da 	j 446 <FshcSpiIOModeCfg+0x220>
     296:	46 14 00 07 	sethi $r1,#0x40007
     29a:	46 30 07 a7 	sethi $r3,#0x7a7
     29e:	c8 15       	bnez38 $r0,2c8 <FshcSpiIOModeCfg+0xa2>
     2a0:	50 31 85 0b 	addi $r3,$r3,#0x50b
     2a4:	14 30 80 0c 	swi $r3,[$r1+#0x30]
     2a8:	44 30 a0 06 	movi $r3,#0xa006
     2ac:	14 30 80 0d 	swi $r3,[$r1+#0x34]
     2b0:	46 30 28 01 	sethi $r3,#0x2801
     2b4:	50 31 89 1f 	addi $r3,$r3,#0x91f
     2b8:	14 30 80 0e 	swi $r3,[$r1+#0x38]
     2bc:	44 30 1d df 	movi $r3,#0x1ddf
     2c0:	14 30 80 10 	swi $r3,[$r1+#0x40]
     2c4:	48 00 01 16 	j 4f0 <FshcSpiIOModeCfg+0x2ca>
     2c8:	50 31 85 3b 	addi $r3,$r3,#0x53b
     2cc:	14 30 80 0c 	swi $r3,[$r1+#0x30]
     2d0:	84 66       	movi55 $r3,#0x6
     2d2:	14 30 80 0d 	swi $r3,[$r1+#0x34]
     2d6:	46 30 28 01 	sethi $r3,#0x2801
     2da:	50 31 89 1f 	addi $r3,$r3,#0x91f
     2de:	14 30 80 0e 	swi $r3,[$r1+#0x38]
     2e2:	46 30 00 81 	sethi $r3,#0x81
     2e6:	50 31 8d df 	addi $r3,$r3,#0xddf
     2ea:	14 30 80 10 	swi $r3,[$r1+#0x40]
     2ee:	48 00 01 01 	j 4f0 <FshcSpiIOModeCfg+0x2ca>
     2f2:	5a 00 01 1f 	beqc $r0,#0x1,330 <FshcSpiIOModeCfg+0x10a>
     2f6:	c0 05       	beqz38 $r0,300 <FshcSpiIOModeCfg+0xda>
     2f8:	5a 00 02 36 	beqc $r0,#0x2,364 <FshcSpiIOModeCfg+0x13e>
     2fc:	48 00 00 fa 	j 4f0 <FshcSpiIOModeCfg+0x2ca>
     300:	46 14 00 07 	sethi $r1,#0x40007
     304:	46 30 07 a7 	sethi $r3,#0x7a7
     308:	50 31 85 0b 	addi $r3,$r3,#0x50b
     30c:	14 30 80 0c 	swi $r3,[$r1+#0x30]
     310:	44 30 a0 06 	movi $r3,#0xa006
     314:	14 30 80 0d 	swi $r3,[$r1+#0x34]
     318:	46 30 28 01 	sethi $r3,#0x2801
     31c:	50 31 89 1f 	addi $r3,$r3,#0x91f
     320:	14 30 80 0e 	swi $r3,[$r1+#0x38]
     324:	44 30 1d df 	movi $r3,#0x1ddf
     328:	14 30 80 10 	swi $r3,[$r1+#0x40]
     32c:	48 00 00 e2 	j 4f0 <FshcSpiIOModeCfg+0x2ca>
     330:	46 14 00 07 	sethi $r1,#0x40007
     334:	46 3a 37 a7 	sethi $r3,#0xa37a7
     338:	50 31 85 bb 	addi $r3,$r3,#0x5bb
     33c:	14 30 80 0c 	swi $r3,[$r1+#0x30]
     340:	44 30 a0 06 	movi $r3,#0xa006
     344:	14 30 80 0d 	swi $r3,[$r1+#0x34]
     348:	46 30 28 01 	sethi $r3,#0x2801
     34c:	50 31 89 0f 	addi $r3,$r3,#0x90f
     350:	14 30 80 0e 	swi $r3,[$r1+#0x38]
     354:	46 30 00 89 	sethi $r3,#0x89
     358:	50 31 8d df 	addi $r3,$r3,#0xddf
     35c:	14 30 80 10 	swi $r3,[$r1+#0x40]
     360:	48 00 00 c8 	j 4f0 <FshcSpiIOModeCfg+0x2ca>
     364:	46 14 00 07 	sethi $r1,#0x40007
     368:	46 3a 37 a7 	sethi $r3,#0xa37a7
     36c:	50 31 85 eb 	addi $r3,$r3,#0x5eb
     370:	14 30 80 0c 	swi $r3,[$r1+#0x30]
     374:	44 30 a0 06 	movi $r3,#0xa006
     378:	14 30 80 0d 	swi $r3,[$r1+#0x34]
     37c:	46 30 28 01 	sethi $r3,#0x2801
     380:	50 31 89 0b 	addi $r3,$r3,#0x90b
     384:	14 30 80 0e 	swi $r3,[$r1+#0x38]
     388:	46 30 00 cd 	sethi $r3,#0xcd
     38c:	50 31 8d df 	addi $r3,$r3,#0xddf
     390:	14 30 80 10 	swi $r3,[$r1+#0x40]
     394:	48 00 00 ae 	j 4f0 <FshcSpiIOModeCfg+0x2ca>
     398:	5a 00 01 1e 	beqc $r0,#0x1,3d4 <FshcSpiIOModeCfg+0x1ae>
     39c:	c0 05       	beqz38 $r0,3a6 <FshcSpiIOModeCfg+0x180>
     39e:	5a 00 02 3b 	beqc $r0,#0x2,414 <FshcSpiIOModeCfg+0x1ee>
     3a2:	48 00 00 a7 	j 4f0 <FshcSpiIOModeCfg+0x2ca>
     3a6:	46 14 00 07 	sethi $r1,#0x40007
     3aa:	46 30 03 0b 	sethi $r3,#0x30b
     3ae:	8c 6b       	addi45 $r3,#0xb
     3b0:	14 30 80 0c 	swi $r3,[$r1+#0x30]
     3b4:	44 30 aa 06 	movi $r3,#0xaa06
     3b8:	14 30 80 0d 	swi $r3,[$r1+#0x34]
     3bc:	46 30 28 01 	sethi $r3,#0x2801
     3c0:	50 31 89 1f 	addi $r3,$r3,#0x91f
     3c4:	14 30 80 0e 	swi $r3,[$r1+#0x38]
     3c8:	44 30 1d df 	movi $r3,#0x1ddf
     3cc:	14 30 80 10 	swi $r3,[$r1+#0x40]
     3d0:	48 00 00 90 	j 4f0 <FshcSpiIOModeCfg+0x2ca>
     3d4:	46 14 00 07 	sethi $r1,#0x40007
     3d8:	46 30 03 0b 	sethi $r3,#0x30b
     3dc:	50 31 80 bb 	addi $r3,$r3,#0xbb
     3e0:	14 30 80 0c 	swi $r3,[$r1+#0x30]
     3e4:	44 30 aa 06 	movi $r3,#0xaa06
     3e8:	14 30 80 0d 	swi $r3,[$r1+#0x34]
     3ec:	46 30 28 01 	sethi $r3,#0x2801
     3f0:	50 31 89 0f 	addi $r3,$r3,#0x90f
     3f4:	14 30 80 0e 	swi $r3,[$r1+#0x38]
     3f8:	46 30 00 89 	sethi $r3,#0x89
     3fc:	50 31 8d df 	addi $r3,$r3,#0xddf
     400:	14 30 80 10 	swi $r3,[$r1+#0x40]
     404:	04 40 80 10 	lwi $r4,[$r1+#0x40]
     408:	46 30 0f 00 	sethi $r3,#0xf00
     40c:	fe e7       	or33 $r3,$r4
     40e:	14 30 80 10 	swi $r3,[$r1+#0x40]
     412:	d5 6f       	j8 4f0 <FshcSpiIOModeCfg+0x2ca>
     414:	46 14 00 07 	sethi $r1,#0x40007
     418:	46 30 03 0b 	sethi $r3,#0x30b
     41c:	50 31 80 eb 	addi $r3,$r3,#0xeb
     420:	14 30 80 0c 	swi $r3,[$r1+#0x30]
     424:	44 30 aa 06 	movi $r3,#0xaa06
     428:	14 30 80 0d 	swi $r3,[$r1+#0x34]
     42c:	46 30 28 01 	sethi $r3,#0x2801
     430:	50 31 89 0b 	addi $r3,$r3,#0x90b
     434:	14 30 80 0e 	swi $r3,[$r1+#0x38]
     438:	46 30 00 cd 	sethi $r3,#0xcd
     43c:	50 31 8d df 	addi $r3,$r3,#0xddf
     440:	14 30 80 10 	swi $r3,[$r1+#0x40]
     444:	d5 56       	j8 4f0 <FshcSpiIOModeCfg+0x2ca>
     446:	5a 00 01 1d 	beqc $r0,#0x1,480 <FshcSpiIOModeCfg+0x25a>
     44a:	c0 04       	beqz38 $r0,452 <FshcSpiIOModeCfg+0x22c>
     44c:	5a 00 02 3a 	beqc $r0,#0x2,4c0 <FshcSpiIOModeCfg+0x29a>
     450:	d5 50       	j8 4f0 <FshcSpiIOModeCfg+0x2ca>
     452:	46 14 00 07 	sethi $r1,#0x40007
     456:	46 30 07 a7 	sethi $r3,#0x7a7
     45a:	50 31 85 0b 	addi $r3,$r3,#0x50b
     45e:	14 30 80 0c 	swi $r3,[$r1+#0x30]
     462:	44 30 a0 06 	movi $r3,#0xa006
     466:	14 30 80 0d 	swi $r3,[$r1+#0x34]
     46a:	46 30 28 01 	sethi $r3,#0x2801
     46e:	50 31 89 1f 	addi $r3,$r3,#0x91f
     472:	14 30 80 0e 	swi $r3,[$r1+#0x38]
     476:	44 30 1d df 	movi $r3,#0x1ddf
     47a:	14 30 80 10 	swi $r3,[$r1+#0x40]
     47e:	d5 39       	j8 4f0 <FshcSpiIOModeCfg+0x2ca>
     480:	46 14 00 07 	sethi $r1,#0x40007
     484:	46 30 07 a7 	sethi $r3,#0x7a7
     488:	50 31 85 bb 	addi $r3,$r3,#0x5bb
     48c:	14 30 80 0c 	swi $r3,[$r1+#0x30]
     490:	44 30 a0 06 	movi $r3,#0xa006
     494:	14 30 80 0d 	swi $r3,[$r1+#0x34]
     498:	46 30 28 01 	sethi $r3,#0x2801
     49c:	50 31 89 0f 	addi $r3,$r3,#0x90f
     4a0:	14 30 80 0e 	swi $r3,[$r1+#0x38]
     4a4:	46 30 00 89 	sethi $r3,#0x89
     4a8:	50 31 8d df 	addi $r3,$r3,#0xddf
     4ac:	14 30 80 10 	swi $r3,[$r1+#0x40]
     4b0:	04 40 80 10 	lwi $r4,[$r1+#0x40]
     4b4:	46 30 0f 00 	sethi $r3,#0xf00
     4b8:	fe e7       	or33 $r3,$r4
     4ba:	14 30 80 10 	swi $r3,[$r1+#0x40]
     4be:	d5 19       	j8 4f0 <FshcSpiIOModeCfg+0x2ca>
     4c0:	46 14 00 07 	sethi $r1,#0x40007
     4c4:	46 30 07 a7 	sethi $r3,#0x7a7
     4c8:	50 31 85 eb 	addi $r3,$r3,#0x5eb
     4cc:	14 30 80 0c 	swi $r3,[$r1+#0x30]
     4d0:	44 30 a0 06 	movi $r3,#0xa006
     4d4:	14 30 80 0d 	swi $r3,[$r1+#0x34]
     4d8:	46 30 28 01 	sethi $r3,#0x2801
     4dc:	50 31 89 0b 	addi $r3,$r3,#0x90b
     4e0:	14 30 80 0e 	swi $r3,[$r1+#0x38]
     4e4:	46 30 00 cd 	sethi $r3,#0xcd
     4e8:	50 31 8d df 	addi $r3,$r3,#0xddf
     4ec:	14 30 80 10 	swi $r3,[$r1+#0x40]
     4f0:	44 30 00 a0 	movi $r3,#0xa0
     4f4:	46 14 00 07 	sethi $r1,#0x40007
     4f8:	14 30 80 14 	swi $r3,[$r1+#0x50]
     4fc:	c2 02       	beqz38 $r2,500 <FshcSpiIOModeCfg+0x2da>
     4fe:	c8 07       	bnez38 $r0,50c <FshcSpiIOModeCfg+0x2e6>
     500:	44 10 ff 06 	movi $r1,#0xff06
     504:	46 04 00 07 	sethi $r0,#0x40007
     508:	14 10 00 0d 	swi $r1,[$r0+#0x34]
     50c:	dd 9e       	ret5 $lp

0000050e <SpiFlashResetCRM>:
     50e:	3b ff fc bc 	smw.adm $sp,[$sp],$sp,#0x2    ! {$lp}
     512:	ef fc       	addi10.sp #-4
     514:	44 00 00 ff 	movi $r0,#0xff
     518:	84 27       	movi55 $r1,#0x7
     51a:	84 40       	movi55 $r2,#0x0
     51c:	44 30 07 00 	movi $r3,#0x700
     520:	84 80       	movi55 $r4,#0x0
     522:	49 ff fe 68 	jal 1f2 <FshcSendCmd>
     526:	44 10 00 ff 	movi $r1,#0xff
     52a:	46 04 00 07 	sethi $r0,#0x40007
     52e:	a8 41       	swi333 $r1,[$r0+#0x4]
     530:	44 00 00 ff 	movi $r0,#0xff
     534:	84 27       	movi55 $r1,#0x7
     536:	84 40       	movi55 $r2,#0x0
     538:	44 30 05 00 	movi $r3,#0x500
     53c:	84 80       	movi55 $r4,#0x0
     53e:	49 ff fe 5a 	jal 1f2 <FshcSendCmd>
     542:	ec 04       	addi10.sp #0x4
     544:	3b ff fc 84 	lmw.bim $sp,[$sp],$sp,#0x2    ! {$lp}
     548:	dd 9e       	ret5 $lp

0000054a <SpiFlashResume>:
     54a:	3b ff fc bc 	smw.adm $sp,[$sp],$sp,#0x2    ! {$lp}
     54e:	ef fc       	addi10.sp #-4
     550:	2e 00 57 1c 	lbi.gp $r0,[+#0x571c]
     554:	96 00       	zeb33 $r0,$r0
     556:	84 80       	movi55 $r4,#0x0
     558:	84 27       	movi55 $r1,#0x7
     55a:	44 30 07 00 	movi $r3,#0x700
     55e:	84 40       	movi55 $r2,#0x0
     560:	5a 08 1c 07 	bnec $r0,#0x1c,56e <SpiFlashResume+0x24>
     564:	44 00 00 30 	movi $r0,#0x30
     568:	49 ff fe 45 	jal 1f2 <FshcSendCmd>
     56c:	d5 05       	j8 576 <SpiFlashResume+0x2c>
     56e:	44 00 00 7a 	movi $r0,#0x7a
     572:	49 ff fe 40 	jal 1f2 <FshcSendCmd>
     576:	ec 04       	addi10.sp #0x4
     578:	3b ff fc 84 	lmw.bim $sp,[$sp],$sp,#0x2    ! {$lp}
     57c:	dd 9e       	ret5 $lp

0000057e <SpiFlashSuspend>:
     57e:	3b ff fc bc 	smw.adm $sp,[$sp],$sp,#0x2    ! {$lp}
     582:	ef fc       	addi10.sp #-4
     584:	2e 00 57 1c 	lbi.gp $r0,[+#0x571c]
     588:	96 00       	zeb33 $r0,$r0
     58a:	84 80       	movi55 $r4,#0x0
     58c:	84 27       	movi55 $r1,#0x7
     58e:	44 30 07 00 	movi $r3,#0x700
     592:	84 40       	movi55 $r2,#0x0
     594:	5a 08 1c 07 	bnec $r0,#0x1c,5a2 <SpiFlashSuspend+0x24>
     598:	44 00 00 b0 	movi $r0,#0xb0
     59c:	49 ff fe 2b 	jal 1f2 <FshcSendCmd>
     5a0:	d5 05       	j8 5aa <SpiFlashSuspend+0x2c>
     5a2:	44 00 00 75 	movi $r0,#0x75
     5a6:	49 ff fe 26 	jal 1f2 <FshcSendCmd>
     5aa:	ec 04       	addi10.sp #0x4
     5ac:	3b ff fc 84 	lmw.bim $sp,[$sp],$sp,#0x2    ! {$lp}
     5b0:	dd 9e       	ret5 $lp

000005b2 <SpiFlashReadId>:
     5b2:	3a 6f 98 bc 	smw.adm $r6,[$sp],$r6,#0x2    ! {$r6, $lp}
     5b6:	46 04 00 07 	sethi $r0,#0x40007
     5ba:	04 00 00 15 	lwi $r0,[$r0+#0x54]
     5be:	96 04       	xlsb33 $r0,$r0
     5c0:	c0 03       	beqz38 $r0,5c6 <SpiFlashReadId+0x14>
     5c2:	49 ff ff a6 	jal 50e <SpiFlashResetCRM>
     5c6:	84 21       	movi55 $r1,#0x1
     5c8:	46 04 00 07 	sethi $r0,#0x40007
     5cc:	14 10 00 0a 	swi $r1,[$r0+#0x28]
     5d0:	44 00 00 9f 	movi $r0,#0x9f
     5d4:	84 27       	movi55 $r1,#0x7
     5d6:	84 40       	movi55 $r2,#0x0
     5d8:	44 30 06 00 	movi $r3,#0x600
     5dc:	84 82       	movi55 $r4,#0x2
     5de:	49 ff fe 0a 	jal 1f2 <FshcSendCmd>
     5e2:	46 04 00 07 	sethi $r0,#0x40007
     5e6:	04 00 00 09 	lwi $r0,[$r0+#0x24]
     5ea:	96 04       	xlsb33 $r0,$r0
     5ec:	c8 fb       	bnez38 $r0,5e2 <SpiFlashReadId+0x30>
     5ee:	46 14 00 07 	sethi $r1,#0x40007
     5f2:	b4 81       	lwi450 $r4,[$r1]
     5f4:	84 40       	movi55 $r2,#0x0
     5f6:	46 04 00 30 	sethi $r0,#0x40030
     5fa:	b6 40       	swi450 $r2,[$r0]
     5fc:	97 60       	zeb33 $r5,$r4
     5fe:	3e 50 57 1c 	sbi.gp $r5,[+#0x571c]
     602:	92 88       	srli45 $r4,#0x8
     604:	97 21       	zeh33 $r4,$r4
     606:	3e 08 57 1d 	addi.gp $r0,#0x571d
     60a:	96 e0       	zeb33 $r3,$r4
     60c:	a7 80       	lbi333 $r6,[$r0+#0x0]
     60e:	ae c0       	sbi333 $r3,[$r0+#0x0]
     610:	40 32 20 09 	srli $r3,$r4,#0x8
     614:	a7 81       	lbi333 $r6,[$r0+#0x1]
     616:	ae c1       	sbi333 $r3,[$r0+#0x1]
     618:	14 20 80 0a 	swi $r2,[$r1+#0x28]
     61c:	84 00       	movi55 $r0,#0x0
     61e:	d5 53       	j8 6c4 <SpiFlashReadId+0x112>
     620:	2e 10 57 1c 	lbi.gp $r1,[+#0x571c]
     624:	fa 42       	movpi45 $r2,#0x12
     626:	fe 84       	mul33 $r2,$r0
     628:	44 30 18 cc 	movi $r3,#0x18cc
     62c:	38 21 88 00 	lb $r2,[$r3+($r2<<#0x0)]
     630:	96 48       	zeb33 $r1,$r1
     632:	4c 11 40 48 	bne $r1,$r2,6c2 <SpiFlashReadId+0x110>
     636:	3e 18 57 1c 	addi.gp $r1,#0x571c
     63a:	a6 c9       	lbi333 $r3,[$r1+#0x1]
     63c:	a6 4a       	lbi333 $r1,[$r1+#0x2]
     63e:	40 10 a0 08 	slli $r1,$r1,#0x8
     642:	fe cf       	or33 $r3,$r1
     644:	44 20 18 cc 	movi $r2,#0x18cc
     648:	fa 22       	movpi45 $r1,#0x12
     64a:	fe 44       	mul33 $r1,$r0
     64c:	41 01 04 00 	add $r16,$r2,$r1
     650:	38 11 04 01 	lh $r1,[$r2+($r1<<#0x0)]
     654:	40 20 a0 09 	srli $r2,$r1,#0x8
     658:	02 18 00 01 	lhi $r1,[$r16+#0x2]
     65c:	96 48       	zeb33 $r1,$r1
     65e:	40 10 a0 08 	slli $r1,$r1,#0x8
     662:	fe 57       	or33 $r1,$r2
     664:	4c 30 c0 2f 	bne $r3,$r1,6c2 <SpiFlashReadId+0x110>
     668:	02 38 00 04 	lhi $r3,[$r16+#0x8]
     66c:	02 08 00 05 	lhi $r0,[$r16+#0xa]
     670:	40 00 40 08 	slli $r0,$r0,#0x10
     674:	fe c7       	or33 $r3,$r0
     676:	3e 08 57 1c 	addi.gp $r0,#0x571c
     67a:	3e 48 57 24 	addi.gp $r4,#0x5724
     67e:	3a 32 0c 20 	smw.bi $r3,[$r4],$r3,#0x0    ! {$r3}
     682:	00 38 00 07 	lbi $r3,[$r16+#0x7]
     686:	96 d8       	zeb33 $r3,$r3
     688:	ae c7       	sbi333 $r3,[$r0+#0x7]
     68a:	00 38 00 0c 	lbi $r3,[$r16+#0xc]
     68e:	96 d8       	zeb33 $r3,$r3
     690:	10 30 00 0c 	sbi $r3,[$r0+#0xc]
     694:	00 38 00 0d 	lbi $r3,[$r16+#0xd]
     698:	96 d8       	zeb33 $r3,$r3
     69a:	10 30 00 0d 	sbi $r3,[$r0+#0xd]
     69e:	00 38 00 0e 	lbi $r3,[$r16+#0xe]
     6a2:	96 d8       	zeb33 $r3,$r3
     6a4:	10 30 00 0e 	sbi $r3,[$r0+#0xe]
     6a8:	00 28 00 0f 	lbi $r2,[$r16+#0xf]
     6ac:	96 90       	zeb33 $r2,$r2
     6ae:	10 20 00 0f 	sbi $r2,[$r0+#0xf]
     6b2:	00 18 00 10 	lbi $r1,[$r16+#0x10]
     6b6:	96 48       	zeb33 $r1,$r1
     6b8:	10 10 00 10 	sbi $r1,[$r0+#0x10]
     6bc:	84 00       	movi55 $r0,#0x0
     6be:	48 00 00 78 	j 7ae <SpiFlashReadId+0x1fc>
     6c2:	8c 01       	addi45 $r0,#0x1
     6c4:	e6 0a       	slti45 $r0,#0xa
     6c6:	e9 ad       	bnezs8 620 <SpiFlashReadId+0x6e>
     6c8:	44 0f ff c8 	movi $r0,#-56
     6cc:	3e 00 57 1c 	sbi.gp $r0,[+#0x571c]
     6d0:	66 02 00 ff 	bitci $r0,$r4,#0xff
     6d4:	58 00 00 40 	ori $r0,$r0,#0x40
     6d8:	3e 18 57 1d 	addi.gp $r1,#0x571d
     6dc:	96 80       	zeb33 $r2,$r0
     6de:	a6 c8       	lbi333 $r3,[$r1+#0x0]
     6e0:	ae 88       	sbi333 $r2,[$r1+#0x0]
     6e2:	92 08       	srli45 $r0,#0x8
     6e4:	a6 89       	lbi333 $r2,[$r1+#0x1]
     6e6:	ae 09       	sbi333 $r0,[$r1+#0x1]
     6e8:	84 00       	movi55 $r0,#0x0
     6ea:	d5 5b       	j8 7a0 <SpiFlashReadId+0x1ee>
     6ec:	2e 10 57 1c 	lbi.gp $r1,[+#0x571c]
     6f0:	fa 42       	movpi45 $r2,#0x12
     6f2:	fe 84       	mul33 $r2,$r0
     6f4:	44 30 18 cc 	movi $r3,#0x18cc
     6f8:	38 21 88 00 	lb $r2,[$r3+($r2<<#0x0)]
     6fc:	96 48       	zeb33 $r1,$r1
     6fe:	4c 11 40 50 	bne $r1,$r2,79e <SpiFlashReadId+0x1ec>
     702:	3e 18 57 1c 	addi.gp $r1,#0x571c
     706:	a6 c9       	lbi333 $r3,[$r1+#0x1]
     708:	a6 4a       	lbi333 $r1,[$r1+#0x2]
     70a:	40 10 a0 08 	slli $r1,$r1,#0x8
     70e:	fe cf       	or33 $r3,$r1
     710:	44 20 18 cc 	movi $r2,#0x18cc
     714:	fa 22       	movpi45 $r1,#0x12
     716:	fe 44       	mul33 $r1,$r0
     718:	41 01 04 00 	add $r16,$r2,$r1
     71c:	38 11 04 01 	lh $r1,[$r2+($r1<<#0x0)]
     720:	40 20 a0 09 	srli $r2,$r1,#0x8
     724:	02 18 00 01 	lhi $r1,[$r16+#0x2]
     728:	96 48       	zeb33 $r1,$r1
     72a:	40 10 a0 08 	slli $r1,$r1,#0x8
     72e:	fe 57       	or33 $r1,$r2
     730:	4c 30 c0 37 	bne $r3,$r1,79e <SpiFlashReadId+0x1ec>
     734:	80 30       	mov55 $r1,$r16
     736:	02 38 00 04 	lhi $r3,[$r16+#0x8]
     73a:	02 08 00 05 	lhi $r0,[$r16+#0xa]
     73e:	40 00 40 08 	slli $r0,$r0,#0x10
     742:	fe c7       	or33 $r3,$r0
     744:	3e 08 57 1c 	addi.gp $r0,#0x571c
     748:	3f 08 57 24 	addi.gp $r16,#0x5724
     74c:	3a 38 0c 20 	smw.bi $r3,[$r16],$r3,#0x0    ! {$r3}
     750:	a6 cf       	lbi333 $r3,[$r1+#0x7]
     752:	96 d8       	zeb33 $r3,$r3
     754:	ae c7       	sbi333 $r3,[$r0+#0x7]
     756:	00 30 80 0c 	lbi $r3,[$r1+#0xc]
     75a:	96 d8       	zeb33 $r3,$r3
     75c:	10 30 00 0c 	sbi $r3,[$r0+#0xc]
     760:	00 30 80 0d 	lbi $r3,[$r1+#0xd]
     764:	96 d8       	zeb33 $r3,$r3
     766:	10 30 00 0d 	sbi $r3,[$r0+#0xd]
     76a:	00 30 80 0e 	lbi $r3,[$r1+#0xe]
     76e:	96 d8       	zeb33 $r3,$r3
     770:	10 30 00 0e 	sbi $r3,[$r0+#0xe]
     774:	00 20 80 0f 	lbi $r2,[$r1+#0xf]
     778:	96 90       	zeb33 $r2,$r2
     77a:	10 20 00 0f 	sbi $r2,[$r0+#0xf]
     77e:	00 10 80 10 	lbi $r1,[$r1+#0x10]
     782:	96 48       	zeb33 $r1,$r1
     784:	10 10 00 10 	sbi $r1,[$r0+#0x10]
     788:	af 40       	sbi333 $r5,[$r0+#0x0]
     78a:	3e 08 57 1d 	addi.gp $r0,#0x571d
     78e:	96 60       	zeb33 $r1,$r4
     790:	a6 80       	lbi333 $r2,[$r0+#0x0]
     792:	ae 40       	sbi333 $r1,[$r0+#0x0]
     794:	92 88       	srli45 $r4,#0x8
     796:	a6 41       	lbi333 $r1,[$r0+#0x1]
     798:	af 01       	sbi333 $r4,[$r0+#0x1]
     79a:	84 00       	movi55 $r0,#0x0
     79c:	d5 09       	j8 7ae <SpiFlashReadId+0x1fc>
     79e:	8c 01       	addi45 $r0,#0x1
     7a0:	e6 0a       	slti45 $r0,#0xa
     7a2:	e9 a5       	bnezs8 6ec <SpiFlashReadId+0x13a>
     7a4:	84 1f       	movi55 $r0,#-1
     7a6:	3e 00 57 1c 	sbi.gp $r0,[+#0x571c]
     7aa:	44 0f ff 02 	movi $r0,#-254
     7ae:	3a 6f 98 84 	lmw.bim $r6,[$sp],$r6,#0x2    ! {$r6, $lp}
     7b2:	dd 9e       	ret5 $lp

000007b4 <SpiFlashReadStatus>:
     7b4:	3a 6f a0 bc 	smw.adm $r6,[$sp],$r8,#0x2    ! {$r6~$r8, $lp}
     7b8:	46 04 00 07 	sethi $r0,#0x40007
     7bc:	04 00 00 15 	lwi $r0,[$r0+#0x54]
     7c0:	96 04       	xlsb33 $r0,$r0
     7c2:	c0 03       	beqz38 $r0,7c8 <SpiFlashReadStatus+0x14>
     7c4:	49 ff fe a5 	jal 50e <SpiFlashResetCRM>
     7c8:	84 21       	movi55 $r1,#0x1
     7ca:	46 04 00 07 	sethi $r0,#0x40007
     7ce:	14 10 00 0a 	swi $r1,[$r0+#0x28]
     7d2:	2e 00 57 1c 	lbi.gp $r0,[+#0x571c]
     7d6:	96 00       	zeb33 $r0,$r0
     7d8:	5a 00 51 08 	beqc $r0,#0x51,7e8 <SpiFlashReadStatus+0x34>
     7dc:	5a 00 c2 06 	beqc $r0,#0xc2,7e8 <SpiFlashReadStatus+0x34>
     7e0:	5a 00 1c 04 	beqc $r0,#0x1c,7e8 <SpiFlashReadStatus+0x34>
     7e4:	84 e0       	movi55 $r7,#0x0
     7e6:	d5 02       	j8 7ea <SpiFlashReadStatus+0x36>
     7e8:	84 e1       	movi55 $r7,#0x1
     7ea:	84 05       	movi55 $r0,#0x5
     7ec:	84 27       	movi55 $r1,#0x7
     7ee:	84 40       	movi55 $r2,#0x0
     7f0:	44 30 06 00 	movi $r3,#0x600
     7f4:	84 80       	movi55 $r4,#0x0
     7f6:	49 ff fc fe 	jal 1f2 <FshcSendCmd>
     7fa:	46 04 00 07 	sethi $r0,#0x40007
     7fe:	04 00 00 09 	lwi $r0,[$r0+#0x24]
     802:	96 04       	xlsb33 $r0,$r0
     804:	c8 fb       	bnez38 $r0,7fa <SpiFlashReadStatus+0x46>
     806:	46 04 00 07 	sethi $r0,#0x40007
     80a:	b4 c0       	lwi450 $r6,[$r0]
     80c:	84 20       	movi55 $r1,#0x0
     80e:	46 04 00 30 	sethi $r0,#0x40030
     812:	b6 20       	swi450 $r1,[$r0]
     814:	cf 1a       	bnez38 $r7,848 <SpiFlashReadStatus+0x94>
     816:	44 00 00 35 	movi $r0,#0x35
     81a:	84 27       	movi55 $r1,#0x7
     81c:	84 40       	movi55 $r2,#0x0
     81e:	44 30 06 00 	movi $r3,#0x600
     822:	84 80       	movi55 $r4,#0x0
     824:	49 ff fc e7 	jal 1f2 <FshcSendCmd>
     828:	46 14 00 07 	sethi $r1,#0x40007
     82c:	04 10 80 09 	lwi $r1,[$r1+#0x24]
     830:	96 4c       	xlsb33 $r1,$r1
     832:	c9 fb       	bnez38 $r1,828 <SpiFlashReadStatus+0x74>
     834:	46 04 00 07 	sethi $r0,#0x40007
     838:	b4 00       	lwi450 $r0,[$r0]
     83a:	84 40       	movi55 $r2,#0x0
     83c:	46 14 00 30 	sethi $r1,#0x40030
     840:	b6 41       	swi450 $r2,[$r1]
     842:	40 00 20 08 	slli $r0,$r0,#0x8
     846:	ff 87       	or33 $r6,$r0
     848:	84 20       	movi55 $r1,#0x0
     84a:	46 04 00 07 	sethi $r0,#0x40007
     84e:	14 10 00 0a 	swi $r1,[$r0+#0x28]
     852:	80 06       	mov55 $r0,$r6
     854:	3a 6f a0 84 	lmw.bim $r6,[$sp],$r8,#0x2    ! {$r6~$r8, $lp}
     858:	dd 9e       	ret5 $lp

0000085a <SpiFlashIsBusy>:
     85a:	3b ff fc bc 	smw.adm $sp,[$sp],$sp,#0x2    ! {$lp}
     85e:	ef fc       	addi10.sp #-4
     860:	49 ff ff aa 	jal 7b4 <SpiFlashReadStatus>
     864:	96 04       	xlsb33 $r0,$r0
     866:	c0 03       	beqz38 $r0,86c <SpiFlashIsBusy+0x12>
     868:	84 01       	movi55 $r0,#0x1
     86a:	d5 02       	j8 86e <SpiFlashIsBusy+0x14>
     86c:	84 00       	movi55 $r0,#0x0
     86e:	ec 04       	addi10.sp #0x4
     870:	3b ff fc 84 	lmw.bim $sp,[$sp],$sp,#0x2    ! {$lp}
     874:	dd 9e       	ret5 $lp

00000876 <SpiFlashWriteStatus>:
     876:	3a 6f a0 bc 	smw.adm $r6,[$sp],$r8,#0x2    ! {$r6~$r8, $lp}
     87a:	80 e0       	mov55 $r7,$r0
     87c:	46 04 00 07 	sethi $r0,#0x40007
     880:	04 10 00 15 	lwi $r1,[$r0+#0x54]
     884:	96 4c       	xlsb33 $r1,$r1
     886:	c1 03       	beqz38 $r1,88c <SpiFlashWriteStatus+0x16>
     888:	49 ff fe 43 	jal 50e <SpiFlashResetCRM>
     88c:	2e 10 57 1c 	lbi.gp $r1,[+#0x571c]
     890:	96 48       	zeb33 $r1,$r1
     892:	5a 10 51 08 	beqc $r1,#0x51,8a2 <SpiFlashWriteStatus+0x2c>
     896:	5a 10 c2 06 	beqc $r1,#0xc2,8a2 <SpiFlashWriteStatus+0x2c>
     89a:	5a 10 1c 04 	beqc $r1,#0x1c,8a2 <SpiFlashWriteStatus+0x2c>
     89e:	85 01       	movi55 $r8,#0x1
     8a0:	d5 02       	j8 8a4 <SpiFlashWriteStatus+0x2e>
     8a2:	85 00       	movi55 $r8,#0x0
     8a4:	2e 10 57 1c 	lbi.gp $r1,[+#0x571c]
     8a8:	96 48       	zeb33 $r1,$r1
     8aa:	5a 10 1c 5d 	beqc $r1,#0x1c,964 <SpiFlashWriteStatus+0xee>
     8ae:	46 64 00 07 	sethi $r6,#0x40007
     8b2:	a9 f1       	swi333 $r7,[$r6+#0x4]
     8b4:	84 06       	movi55 $r0,#0x6
     8b6:	84 27       	movi55 $r1,#0x7
     8b8:	84 40       	movi55 $r2,#0x0
     8ba:	44 30 07 00 	movi $r3,#0x700
     8be:	84 80       	movi55 $r4,#0x0
     8c0:	49 ff fc 99 	jal 1f2 <FshcSendCmd>
     8c4:	84 01       	movi55 $r0,#0x1
     8c6:	84 27       	movi55 $r1,#0x7
     8c8:	84 40       	movi55 $r2,#0x0
     8ca:	44 30 05 00 	movi $r3,#0x500
     8ce:	84 80       	movi55 $r4,#0x0
     8d0:	49 ff fc 91 	jal 1f2 <FshcSendCmd>
     8d4:	a0 32       	lwi333 $r0,[$r6+#0x8]
     8d6:	58 00 00 08 	ori $r0,$r0,#0x8
     8da:	a8 32       	swi333 $r0,[$r6+#0x8]
     8dc:	d5 05       	j8 8e6 <SpiFlashWriteStatus+0x70>
     8de:	44 00 00 64 	movi $r0,#0x64
     8e2:	49 ff fc 1f 	jal 120 <flash_udelay>
     8e6:	49 ff ff ba 	jal 85a <SpiFlashIsBusy>
     8ea:	c8 fa       	bnez38 $r0,8de <SpiFlashWriteStatus+0x68>
     8ec:	46 64 00 07 	sethi $r6,#0x40007
     8f0:	a0 32       	lwi333 $r0,[$r6+#0x8]
     8f2:	66 00 00 08 	bitci $r0,$r0,#0x8
     8f6:	a8 32       	swi333 $r0,[$r6+#0x8]
     8f8:	84 04       	movi55 $r0,#0x4
     8fa:	84 27       	movi55 $r1,#0x7
     8fc:	84 40       	movi55 $r2,#0x0
     8fe:	44 30 07 00 	movi $r3,#0x700
     902:	84 80       	movi55 $r4,#0x0
     904:	49 ff fc 77 	jal 1f2 <FshcSendCmd>
     908:	40 03 a0 09 	srli $r0,$r7,#0x8
     90c:	a8 31       	swi333 $r0,[$r6+#0x4]
     90e:	84 06       	movi55 $r0,#0x6
     910:	84 27       	movi55 $r1,#0x7
     912:	84 40       	movi55 $r2,#0x0
     914:	44 30 07 00 	movi $r3,#0x700
     918:	84 80       	movi55 $r4,#0x0
     91a:	49 ff fc 6c 	jal 1f2 <FshcSendCmd>
     91e:	44 00 00 31 	movi $r0,#0x31
     922:	84 27       	movi55 $r1,#0x7
     924:	84 40       	movi55 $r2,#0x0
     926:	44 30 05 00 	movi $r3,#0x500
     92a:	84 80       	movi55 $r4,#0x0
     92c:	49 ff fc 63 	jal 1f2 <FshcSendCmd>
     930:	a0 32       	lwi333 $r0,[$r6+#0x8]
     932:	58 00 00 08 	ori $r0,$r0,#0x8
     936:	a8 32       	swi333 $r0,[$r6+#0x8]
     938:	d5 05       	j8 942 <SpiFlashWriteStatus+0xcc>
     93a:	44 00 00 64 	movi $r0,#0x64
     93e:	49 ff fb f1 	jal 120 <flash_udelay>
     942:	49 ff ff 8c 	jal 85a <SpiFlashIsBusy>
     946:	c8 fa       	bnez38 $r0,93a <SpiFlashWriteStatus+0xc4>
     948:	46 14 00 07 	sethi $r1,#0x40007
     94c:	a0 0a       	lwi333 $r0,[$r1+#0x8]
     94e:	66 00 00 08 	bitci $r0,$r0,#0x8
     952:	a8 0a       	swi333 $r0,[$r1+#0x8]
     954:	84 04       	movi55 $r0,#0x4
     956:	84 27       	movi55 $r1,#0x7
     958:	84 40       	movi55 $r2,#0x0
     95a:	44 30 07 00 	movi $r3,#0x700
     95e:	84 80       	movi55 $r4,#0x0
     960:	49 ff fc 49 	jal 1f2 <FshcSendCmd>
     964:	46 04 00 07 	sethi $r0,#0x40007
     968:	a9 c1       	swi333 $r7,[$r0+#0x4]
     96a:	84 06       	movi55 $r0,#0x6
     96c:	84 27       	movi55 $r1,#0x7
     96e:	84 40       	movi55 $r2,#0x0
     970:	44 30 07 00 	movi $r3,#0x700
     974:	84 80       	movi55 $r4,#0x0
     976:	49 ff fc 3e 	jal 1f2 <FshcSendCmd>
     97a:	84 01       	movi55 $r0,#0x1
     97c:	84 27       	movi55 $r1,#0x7
     97e:	84 40       	movi55 $r2,#0x0
     980:	44 30 05 00 	movi $r3,#0x500
     984:	80 88       	mov55 $r4,$r8
     986:	49 ff fc 36 	jal 1f2 <FshcSendCmd>
     98a:	46 04 00 07 	sethi $r0,#0x40007
     98e:	04 00 00 0b 	lwi $r0,[$r0+#0x2c]
     992:	c8 fc       	bnez38 $r0,98a <SpiFlashWriteStatus+0x114>
     994:	46 14 00 07 	sethi $r1,#0x40007
     998:	a0 0a       	lwi333 $r0,[$r1+#0x8]
     99a:	58 00 00 08 	ori $r0,$r0,#0x8
     99e:	a8 0a       	swi333 $r0,[$r1+#0x8]
     9a0:	d5 05       	j8 9aa <SpiFlashWriteStatus+0x134>
     9a2:	44 00 00 64 	movi $r0,#0x64
     9a6:	49 ff fb bd 	jal 120 <flash_udelay>
     9aa:	49 ff ff 58 	jal 85a <SpiFlashIsBusy>
     9ae:	c8 fa       	bnez38 $r0,9a2 <SpiFlashWriteStatus+0x12c>
     9b0:	46 14 00 07 	sethi $r1,#0x40007
     9b4:	a0 0a       	lwi333 $r0,[$r1+#0x8]
     9b6:	66 00 00 08 	bitci $r0,$r0,#0x8
     9ba:	a8 0a       	swi333 $r0,[$r1+#0x8]
     9bc:	2e 00 57 1c 	lbi.gp $r0,[+#0x571c]
     9c0:	96 00       	zeb33 $r0,$r0
     9c2:	5a 08 c8 0a 	bnec $r0,#0xc8,9d6 <SpiFlashWriteStatus+0x160>
     9c6:	84 04       	movi55 $r0,#0x4
     9c8:	84 27       	movi55 $r1,#0x7
     9ca:	84 40       	movi55 $r2,#0x0
     9cc:	44 30 07 00 	movi $r3,#0x700
     9d0:	84 80       	movi55 $r4,#0x0
     9d2:	49 ff fc 10 	jal 1f2 <FshcSendCmd>
     9d6:	3a 6f a0 84 	lmw.bim $r6,[$sp],$r8,#0x2    ! {$r6~$r8, $lp}
     9da:	dd 9e       	ret5 $lp

000009dc <SpiFlashIOModeCfg>:
     9dc:	3a 6f 98 bc 	smw.adm $r6,[$sp],$r6,#0x2    ! {$r6, $lp}
     9e0:	80 c0       	mov55 $r6,$r0
     9e2:	49 ff fe e9 	jal 7b4 <SpiFlashReadStatus>
     9e6:	66 50 01 80 	bitci $r5,$r0,#0x180
     9ea:	5a 68 02 04 	bnec $r6,#0x2,9f2 <SpiFlashIOModeCfg+0x16>
     9ee:	84 61       	movi55 $r3,#0x1
     9f0:	d5 02       	j8 9f4 <SpiFlashIOModeCfg+0x18>
     9f2:	84 60       	movi55 $r3,#0x0
     9f4:	2e 10 57 1c 	lbi.gp $r1,[+#0x571c]
     9f8:	96 48       	zeb33 $r1,$r1
     9fa:	5a 10 51 07 	beqc $r1,#0x51,a08 <SpiFlashIOModeCfg+0x2c>
     9fe:	5a 10 c2 2f 	beqc $r1,#0xc2,a5c <SpiFlashIOModeCfg+0x80>
     a02:	5a 18 1c 39 	bnec $r1,#0x1c,a74 <SpiFlashIOModeCfg+0x98>
     a06:	d5 04       	j8 a0e <SpiFlashIOModeCfg+0x32>
     a08:	5a 68 02 43 	bnec $r6,#0x2,a8e <SpiFlashIOModeCfg+0xb2>
     a0c:	d5 40       	j8 a8c <SpiFlashIOModeCfg+0xb0>
     a0e:	44 00 00 3a 	movi $r0,#0x3a
     a12:	84 27       	movi55 $r1,#0x7
     a14:	84 40       	movi55 $r2,#0x0
     a16:	44 30 07 00 	movi $r3,#0x700
     a1a:	84 80       	movi55 $r4,#0x0
     a1c:	49 ff fb eb 	jal 1f2 <FshcSendCmd>
     a20:	49 ff fe ca 	jal 7b4 <SpiFlashReadStatus>
     a24:	3e 28 57 1c 	addi.gp $r2,#0x571c
     a28:	a6 d1       	lbi333 $r3,[$r2+#0x1]
     a2a:	a6 52       	lbi333 $r1,[$r2+#0x2]
     a2c:	40 50 a0 08 	slli $r5,$r1,#0x8
     a30:	ff 5f       	or33 $r5,$r3
     a32:	44 20 15 70 	movi $r2,#0x1570
     a36:	da 0a       	bnes38 $r2,a4a <SpiFlashIOModeCfg+0x6e>
     a38:	96 26       	bmski33 $r0,#0x4
     a3a:	c0 05       	beqz38 $r0,a44 <SpiFlashIOModeCfg+0x68>
     a3c:	84 01       	movi55 $r0,#0x1
     a3e:	3e 00 2a e0 	sbi.gp $r0,[+#0x2ae0]
     a42:	d5 04       	j8 a4a <SpiFlashIOModeCfg+0x6e>
     a44:	84 00       	movi55 $r0,#0x0
     a46:	3e 00 2a e0 	sbi.gp $r0,[+#0x2ae0]
     a4a:	84 04       	movi55 $r0,#0x4
     a4c:	84 27       	movi55 $r1,#0x7
     a4e:	84 40       	movi55 $r2,#0x0
     a50:	44 30 07 00 	movi $r3,#0x700
     a54:	84 80       	movi55 $r4,#0x0
     a56:	49 ff fb ce 	jal 1f2 <FshcSendCmd>
     a5a:	d5 1a       	j8 a8e <SpiFlashIOModeCfg+0xb2>
     a5c:	5a 38 01 06 	bnec $r3,#0x1,a68 <SpiFlashIOModeCfg+0x8c>
     a60:	58 02 80 40 	ori $r0,$r5,#0x40
     a64:	d8 05       	bnes38 $r0,a6e <SpiFlashIOModeCfg+0x92>
     a66:	d5 14       	j8 a8e <SpiFlashIOModeCfg+0xb2>
     a68:	66 00 01 c0 	bitci $r0,$r0,#0x1c0
     a6c:	d0 11       	beqs38 $r0,a8e <SpiFlashIOModeCfg+0xb2>
     a6e:	49 ff ff 04 	jal 876 <SpiFlashWriteStatus>
     a72:	d5 0e       	j8 a8e <SpiFlashIOModeCfg+0xb2>
     a74:	5a 38 01 06 	bnec $r3,#0x1,a80 <SpiFlashIOModeCfg+0xa4>
     a78:	58 02 82 00 	ori $r0,$r5,#0x200
     a7c:	d8 05       	bnes38 $r0,a86 <SpiFlashIOModeCfg+0xaa>
     a7e:	d5 08       	j8 a8e <SpiFlashIOModeCfg+0xb2>
     a80:	66 00 03 80 	bitci $r0,$r0,#0x380
     a84:	d0 05       	beqs38 $r0,a8e <SpiFlashIOModeCfg+0xb2>
     a86:	49 ff fe f8 	jal 876 <SpiFlashWriteStatus>
     a8a:	d5 02       	j8 a8e <SpiFlashIOModeCfg+0xb2>
     a8c:	84 c1       	movi55 $r6,#0x1
     a8e:	3e 08 57 1f 	addi.gp $r0,#0x571f
     a92:	3a 60 18 20 	smw.bi $r6,[$r0],$r6,#0x0    ! {$r6}
     a96:	84 00       	movi55 $r0,#0x0
     a98:	3a 6f 98 84 	lmw.bim $r6,[$sp],$r6,#0x2    ! {$r6, $lp}
     a9c:	dd 9e       	ret5 $lp

00000a9e <SpiFlashDeepPowerDown>:
     a9e:	3b ff fc bc 	smw.adm $sp,[$sp],$sp,#0x2    ! {$lp}
     aa2:	ef fc       	addi10.sp #-4
     aa4:	46 04 00 07 	sethi $r0,#0x40007
     aa8:	04 00 00 15 	lwi $r0,[$r0+#0x54]
     aac:	96 04       	xlsb33 $r0,$r0
     aae:	c0 03       	beqz38 $r0,ab4 <SpiFlashDeepPowerDown+0x16>
     ab0:	49 ff fd 2f 	jal 50e <SpiFlashResetCRM>
     ab4:	44 00 00 b9 	movi $r0,#0xb9
     ab8:	84 27       	movi55 $r1,#0x7
     aba:	84 40       	movi55 $r2,#0x0
     abc:	44 30 07 00 	movi $r3,#0x700
     ac0:	84 80       	movi55 $r4,#0x0
     ac2:	49 ff fb 98 	jal 1f2 <FshcSendCmd>
     ac6:	ec 04       	addi10.sp #0x4
     ac8:	3b ff fc 84 	lmw.bim $sp,[$sp],$sp,#0x2    ! {$lp}
     acc:	dd 9e       	ret5 $lp

00000ace <SpiFlashReleaseFromDeepPowerDown>:
     ace:	3b ff fc bc 	smw.adm $sp,[$sp],$sp,#0x2    ! {$lp}
     ad2:	ef fc       	addi10.sp #-4
     ad4:	44 00 00 ab 	movi $r0,#0xab
     ad8:	84 27       	movi55 $r1,#0x7
     ada:	84 40       	movi55 $r2,#0x0
     adc:	44 30 07 00 	movi $r3,#0x700
     ae0:	84 80       	movi55 $r4,#0x0
     ae2:	49 ff fb 88 	jal 1f2 <FshcSendCmd>
     ae6:	ec 04       	addi10.sp #0x4
     ae8:	3b ff fc 84 	lmw.bim $sp,[$sp],$sp,#0x2    ! {$lp}
     aec:	dd 9e       	ret5 $lp

00000aee <SpiFlashWriteUnLock>:
     aee:	e6 24       	slti45 $r1,#0x4
     af0:	4e f2 00 a6 	beqz $r15,c3c <SpiFlashWriteUnLock+0x14e>
     af4:	a6 40       	lbi333 $r1,[$r0+#0x0]
     af6:	5a 10 35 04 	beqc $r1,#0x35,afe <SpiFlashWriteUnLock+0x10>
     afa:	48 00 00 a4 	j c42 <SpiFlashWriteUnLock+0x154>
     afe:	3a 6f 98 bc 	smw.adm $r6,[$sp],$r6,#0x2    ! {$r6, $lp}
     b02:	80 c0       	mov55 $r6,$r0
     b04:	49 ff fe 58 	jal 7b4 <SpiFlashReadStatus>
     b08:	96 01       	zeh33 $r0,$r0
     b0a:	66 10 01 80 	bitci $r1,$r0,#0x180
     b0e:	96 49       	zeh33 $r1,$r1
     b10:	a6 b1       	lbi333 $r2,[$r6+#0x1]
     b12:	5a 20 ba 04 	beqc $r2,#0xba,b1a <SpiFlashWriteUnLock+0x2c>
     b16:	48 00 00 99 	j c48 <SpiFlashWriteUnLock+0x15a>
     b1a:	2e 20 57 1c 	lbi.gp $r2,[+#0x571c]
     b1e:	96 90       	zeb33 $r2,$r2
     b20:	5a 20 a1 07 	beqc $r2,#0xa1,b2e <SpiFlashWriteUnLock+0x40>
     b24:	5a 20 c2 5f 	beqc $r2,#0xc2,be2 <SpiFlashWriteUnLock+0xf4>
     b28:	5a 28 1c 65 	bnec $r2,#0x1c,bf2 <SpiFlashWriteUnLock+0x104>
     b2c:	d5 4c       	j8 bc4 <SpiFlashWriteUnLock+0xd6>
     b2e:	3e 38 57 1c 	addi.gp $r3,#0x571c
     b32:	a7 19       	lbi333 $r4,[$r3+#0x1]
     b34:	a6 9a       	lbi333 $r2,[$r3+#0x2]
     b36:	40 51 20 08 	slli $r5,$r2,#0x8
     b3a:	ff 67       	or33 $r5,$r4
     b3c:	44 30 13 40 	movi $r3,#0x1340
     b40:	d3 0b       	beqs38 $r3,b56 <SpiFlashWriteUnLock+0x68>
     b42:	3e 38 57 1c 	addi.gp $r3,#0x571c
     b46:	a7 19       	lbi333 $r4,[$r3+#0x1]
     b48:	a6 9a       	lbi333 $r2,[$r3+#0x2]
     b4a:	40 51 20 08 	slli $r5,$r2,#0x8
     b4e:	ff 67       	or33 $r5,$r4
     b50:	44 30 14 40 	movi $r3,#0x1440
     b54:	db 18       	bnes38 $r3,b84 <SpiFlashWriteUnLock+0x96>
     b56:	66 10 11 fc 	bitci $r1,$r0,#0x11fc
     b5a:	2e 20 57 28 	lbi.gp $r2,[+#0x5728]
     b5e:	96 90       	zeb33 $r2,$r2
     b60:	54 41 00 1f 	andi $r4,$r2,#0x1f
     b64:	95 22       	slli333 $r4,$r4,#0x2
     b66:	fe 67       	or33 $r1,$r4
     b68:	96 cb       	seh33 $r3,$r1
     b6a:	96 59       	zeh33 $r1,$r3
     b6c:	54 41 00 40 	andi $r4,$r2,#0x40
     b70:	97 20       	zeb33 $r4,$r4
     b72:	c4 56       	beqz38 $r4,c1e <SpiFlashWriteUnLock+0x130>
     b74:	42 21 14 0b 	btst $r2,$r2,#0x5
     b78:	40 21 30 08 	slli $r2,$r2,#0xc
     b7c:	40 11 88 04 	or $r1,$r3,$r2
     b80:	96 49       	zeh33 $r1,$r1
     b82:	d5 4e       	j8 c1e <SpiFlashWriteUnLock+0x130>
     b84:	3e 38 57 1c 	addi.gp $r3,#0x571c
     b88:	a7 19       	lbi333 $r4,[$r3+#0x1]
     b8a:	a6 9a       	lbi333 $r2,[$r3+#0x2]
     b8c:	40 51 20 08 	slli $r5,$r2,#0x8
     b90:	ff 67       	or33 $r5,$r4
     b92:	44 30 15 40 	movi $r3,#0x1540
     b96:	db 44       	bnes38 $r3,c1e <SpiFlashWriteUnLock+0x130>
     b98:	66 10 41 fc 	bitci $r1,$r0,#0x41fc
     b9c:	2e 20 57 28 	lbi.gp $r2,[+#0x5728]
     ba0:	96 90       	zeb33 $r2,$r2
     ba2:	54 41 00 1f 	andi $r4,$r2,#0x1f
     ba6:	95 22       	slli333 $r4,$r4,#0x2
     ba8:	fe 67       	or33 $r1,$r4
     baa:	96 cb       	seh33 $r3,$r1
     bac:	96 59       	zeh33 $r1,$r3
     bae:	54 41 00 40 	andi $r4,$r2,#0x40
     bb2:	97 20       	zeb33 $r4,$r4
     bb4:	c4 35       	beqz38 $r4,c1e <SpiFlashWriteUnLock+0x130>
     bb6:	96 ae       	bmski33 $r2,#0x5
     bb8:	96 50       	zeb33 $r1,$r2
     bba:	40 10 a4 08 	slli $r1,$r1,#0x9
     bbe:	fe 5f       	or33 $r1,$r3
     bc0:	96 49       	zeh33 $r1,$r1
     bc2:	d5 2e       	j8 c1e <SpiFlashWriteUnLock+0x130>
     bc4:	66 10 01 fc 	bitci $r1,$r0,#0x1fc
     bc8:	96 89       	zeh33 $r2,$r1
     bca:	2e 10 2a e0 	lbi.gp $r1,[+#0x2ae0]
     bce:	c9 04       	bnez38 $r1,bd6 <SpiFlashWriteUnLock+0xe8>
     bd0:	2e 10 57 28 	lbi.gp $r1,[+#0x5728]
     bd4:	d5 03       	j8 bda <SpiFlashWriteUnLock+0xec>
     bd6:	44 10 00 86 	movi $r1,#0x86
     bda:	96 67       	fexti33 $r1,#0x4
     bdc:	94 4a       	slli333 $r1,$r1,#0x2
     bde:	fe 57       	or33 $r1,$r2
     be0:	d5 1f       	j8 c1e <SpiFlashWriteUnLock+0x130>
     be2:	66 10 01 bc 	bitci $r1,$r0,#0x1bc
     be6:	2e 20 57 28 	lbi.gp $r2,[+#0x5728]
     bea:	96 9f       	fexti33 $r2,#0x3
     bec:	94 92       	slli333 $r2,$r2,#0x2
     bee:	fe 57       	or33 $r1,$r2
     bf0:	d5 17       	j8 c1e <SpiFlashWriteUnLock+0x130>
     bf2:	66 10 41 fc 	bitci $r1,$r0,#0x41fc
     bf6:	2e 20 57 28 	lbi.gp $r2,[+#0x5728]
     bfa:	96 90       	zeb33 $r2,$r2
     bfc:	54 41 00 1f 	andi $r4,$r2,#0x1f
     c00:	95 22       	slli333 $r4,$r4,#0x2
     c02:	fe 67       	or33 $r1,$r4
     c04:	96 cb       	seh33 $r3,$r1
     c06:	96 59       	zeh33 $r1,$r3
     c08:	54 41 00 40 	andi $r4,$r2,#0x40
     c0c:	97 20       	zeb33 $r4,$r4
     c0e:	c4 08       	beqz38 $r4,c1e <SpiFlashWriteUnLock+0x130>
     c10:	96 ae       	bmski33 $r2,#0x5
     c12:	96 90       	zeb33 $r2,$r2
     c14:	40 21 24 08 	slli $r2,$r2,#0x9
     c18:	40 11 88 04 	or $r1,$r3,$r2
     c1c:	96 49       	zeh33 $r1,$r1
     c1e:	a6 b2       	lbi333 $r2,[$r6+#0x2]
     c20:	5a 28 69 09 	bnec $r2,#0x69,c32 <SpiFlashWriteUnLock+0x144>
     c24:	4c 10 00 0a 	beq $r1,$r0,c38 <SpiFlashWriteUnLock+0x14a>
     c28:	80 01       	mov55 $r0,$r1
     c2a:	49 ff fe 26 	jal 876 <SpiFlashWriteStatus>
     c2e:	84 00       	movi55 $r0,#0x0
     c30:	d5 0e       	j8 c4c <SpiFlashWriteUnLock+0x15e>
     c32:	44 0f ff 08 	movi $r0,#-248
     c36:	d5 0b       	j8 c4c <SpiFlashWriteUnLock+0x15e>
     c38:	84 00       	movi55 $r0,#0x0
     c3a:	d5 09       	j8 c4c <SpiFlashWriteUnLock+0x15e>
     c3c:	44 0f ff 08 	movi $r0,#-248
     c40:	dd 9e       	ret5 $lp
     c42:	44 0f ff 08 	movi $r0,#-248
     c46:	dd 9e       	ret5 $lp
     c48:	44 0f ff 08 	movi $r0,#-248
     c4c:	3a 6f 98 84 	lmw.bim $r6,[$sp],$r6,#0x2    ! {$r6, $lp}
     c50:	dd 9e       	ret5 $lp
	...

00000c54 <SpiFlashWriteLock>:
     c54:	8e 01       	subi45 $r0,#0x1
     c56:	e6 04       	slti45 $r0,#0x4
     c58:	4e f2 00 ac 	beqz $r15,db0 <SpiFlashWriteLock+0x15c>
     c5c:	3a 6f 98 bc 	smw.adm $r6,[$sp],$r6,#0x2    ! {$r6, $lp}
     c60:	44 f0 0c 6c 	movi $r15,#0xc6c
     c64:	38 07 82 02 	lw $r0,[$r15+($r0<<#0x2)]
     c68:	4a 00 00 00 	jr $r0
     c6c:	7c 0c 00 00 	.word	0x00000c7c
     c70:	84 0c 00 00 	.word	0x00000c84
     c74:	8c 0c 00 00 	.word	0x00000c8c
     c78:	94 0c 00 00 	.word	0x00000c94
     c7c:	2e 10 57 29 	lbi.gp $r1,[+#0x5729]
     c80:	80 c1       	mov55 $r6,$r1
     c82:	d5 0c       	j8 c9a <SpiFlashWriteLock+0x46>
     c84:	2e 10 57 2a 	lbi.gp $r1,[+#0x572a]
     c88:	80 c1       	mov55 $r6,$r1
     c8a:	d5 08       	j8 c9a <SpiFlashWriteLock+0x46>
     c8c:	2e 10 57 2b 	lbi.gp $r1,[+#0x572b]
     c90:	80 c1       	mov55 $r6,$r1
     c92:	d5 04       	j8 c9a <SpiFlashWriteLock+0x46>
     c94:	2e 10 57 2c 	lbi.gp $r1,[+#0x572c]
     c98:	80 c1       	mov55 $r6,$r1
     c9a:	5a 68 7f 04 	bnec $r6,#0x7f,ca2 <SpiFlashWriteLock+0x4e>
     c9e:	48 00 00 8c 	j db6 <SpiFlashWriteLock+0x162>
     ca2:	49 ff fd 89 	jal 7b4 <SpiFlashReadStatus>
     ca6:	97 01       	zeh33 $r4,$r0
     ca8:	66 02 01 80 	bitci $r0,$r4,#0x180
     cac:	96 01       	zeh33 $r0,$r0
     cae:	2e 10 57 1c 	lbi.gp $r1,[+#0x571c]
     cb2:	96 48       	zeb33 $r1,$r1
     cb4:	5a 10 a1 07 	beqc $r1,#0xa1,cc2 <SpiFlashWriteLock+0x6e>
     cb8:	5a 10 c2 5c 	beqc $r1,#0xc2,d70 <SpiFlashWriteLock+0x11c>
     cbc:	5a 18 1c 61 	bnec $r1,#0x1c,d7e <SpiFlashWriteLock+0x12a>
     cc0:	d5 46       	j8 d4c <SpiFlashWriteLock+0xf8>
     cc2:	3e 28 57 1c 	addi.gp $r2,#0x571c
     cc6:	a6 d1       	lbi333 $r3,[$r2+#0x1]
     cc8:	a6 52       	lbi333 $r1,[$r2+#0x2]
     cca:	40 50 a0 08 	slli $r5,$r1,#0x8
     cce:	ff 5f       	or33 $r5,$r3
     cd0:	44 20 13 40 	movi $r2,#0x1340
     cd4:	d2 0b       	beqs38 $r2,cea <SpiFlashWriteLock+0x96>
     cd6:	3e 28 57 1c 	addi.gp $r2,#0x571c
     cda:	a6 d1       	lbi333 $r3,[$r2+#0x1]
     cdc:	a6 52       	lbi333 $r1,[$r2+#0x2]
     cde:	40 50 a0 08 	slli $r5,$r1,#0x8
     ce2:	ff 5f       	or33 $r5,$r3
     ce4:	44 20 14 40 	movi $r2,#0x1440
     ce8:	da 14       	bnes38 $r2,d10 <SpiFlashWriteLock+0xbc>
     cea:	66 22 11 fc 	bitci $r2,$r4,#0x11fc
     cee:	54 13 00 1f 	andi $r1,$r6,#0x1f
     cf2:	94 4a       	slli333 $r1,$r1,#0x2
     cf4:	fe 8f       	or33 $r2,$r1
     cf6:	96 93       	seh33 $r2,$r2
     cf8:	96 11       	zeh33 $r0,$r2
     cfa:	54 13 00 40 	andi $r1,$r6,#0x40
     cfe:	96 49       	zeh33 $r1,$r1
     d00:	c1 52       	beqz38 $r1,da4 <SpiFlashWriteLock+0x150>
     d02:	42 03 14 0b 	btst $r0,$r6,#0x5
     d06:	40 00 30 08 	slli $r0,$r0,#0xc
     d0a:	fe 17       	or33 $r0,$r2
     d0c:	96 01       	zeh33 $r0,$r0
     d0e:	d5 4b       	j8 da4 <SpiFlashWriteLock+0x150>
     d10:	3e 28 57 1c 	addi.gp $r2,#0x571c
     d14:	a6 d1       	lbi333 $r3,[$r2+#0x1]
     d16:	a6 52       	lbi333 $r1,[$r2+#0x2]
     d18:	40 50 a0 08 	slli $r5,$r1,#0x8
     d1c:	ff 5f       	or33 $r5,$r3
     d1e:	44 20 15 40 	movi $r2,#0x1540
     d22:	da 41       	bnes38 $r2,da4 <SpiFlashWriteLock+0x150>
     d24:	66 22 41 fc 	bitci $r2,$r4,#0x41fc
     d28:	54 03 00 1f 	andi $r0,$r6,#0x1f
     d2c:	94 02       	slli333 $r0,$r0,#0x2
     d2e:	fe 87       	or33 $r2,$r0
     d30:	96 93       	seh33 $r2,$r2
     d32:	96 11       	zeh33 $r0,$r2
     d34:	54 13 00 40 	andi $r1,$r6,#0x40
     d38:	96 49       	zeh33 $r1,$r1
     d3a:	c1 35       	beqz38 $r1,da4 <SpiFlashWriteLock+0x150>
     d3c:	54 03 00 20 	andi $r0,$r6,#0x20
     d40:	96 01       	zeh33 $r0,$r0
     d42:	40 00 24 08 	slli $r0,$r0,#0x9
     d46:	fe 17       	or33 $r0,$r2
     d48:	96 01       	zeh33 $r0,$r0
     d4a:	d5 2d       	j8 da4 <SpiFlashWriteLock+0x150>
     d4c:	66 02 01 fc 	bitci $r0,$r4,#0x1fc
     d50:	96 81       	zeh33 $r2,$r0
     d52:	2e 00 2a e0 	lbi.gp $r0,[+#0x2ae0]
     d56:	c0 08       	beqz38 $r0,d66 <SpiFlashWriteLock+0x112>
     d58:	5a 68 8d 05 	bnec $r6,#0x8d,d62 <SpiFlashWriteLock+0x10e>
     d5c:	44 60 00 85 	movi $r6,#0x85
     d60:	d5 03       	j8 d66 <SpiFlashWriteLock+0x112>
     d62:	44 60 00 80 	movi $r6,#0x80
     d66:	54 03 00 1f 	andi $r0,$r6,#0x1f
     d6a:	94 02       	slli333 $r0,$r0,#0x2
     d6c:	fe 17       	or33 $r0,$r2
     d6e:	d5 1b       	j8 da4 <SpiFlashWriteLock+0x150>
     d70:	66 02 01 bc 	bitci $r0,$r4,#0x1bc
     d74:	54 13 00 0f 	andi $r1,$r6,#0xf
     d78:	94 4a       	slli333 $r1,$r1,#0x2
     d7a:	fe 0f       	or33 $r0,$r1
     d7c:	d5 14       	j8 da4 <SpiFlashWriteLock+0x150>
     d7e:	66 22 41 fc 	bitci $r2,$r4,#0x41fc
     d82:	54 33 00 1f 	andi $r3,$r6,#0x1f
     d86:	94 da       	slli333 $r3,$r3,#0x2
     d88:	fe 9f       	or33 $r2,$r3
     d8a:	96 93       	seh33 $r2,$r2
     d8c:	96 11       	zeh33 $r0,$r2
     d8e:	54 13 00 40 	andi $r1,$r6,#0x40
     d92:	96 49       	zeh33 $r1,$r1
     d94:	c1 08       	beqz38 $r1,da4 <SpiFlashWriteLock+0x150>
     d96:	54 13 00 20 	andi $r1,$r6,#0x20
     d9a:	96 49       	zeh33 $r1,$r1
     d9c:	40 10 a4 08 	slli $r1,$r1,#0x9
     da0:	fe 57       	or33 $r1,$r2
     da2:	96 09       	zeh33 $r0,$r1
     da4:	4c 02 00 0c 	beq $r0,$r4,dbc <SpiFlashWriteLock+0x168>
     da8:	49 ff fd 67 	jal 876 <SpiFlashWriteStatus>
     dac:	84 00       	movi55 $r0,#0x0
     dae:	d5 08       	j8 dbe <SpiFlashWriteLock+0x16a>
     db0:	44 0f ff 07 	movi $r0,#-249
     db4:	dd 9e       	ret5 $lp
     db6:	44 0f ff 07 	movi $r0,#-249
     dba:	d5 02       	j8 dbe <SpiFlashWriteLock+0x16a>
     dbc:	84 00       	movi55 $r0,#0x0
     dbe:	3a 6f 98 84 	lmw.bim $r6,[$sp],$r6,#0x2    ! {$r6, $lp}
     dc2:	dd 9e       	ret5 $lp

00000dc4 <Flash_GIE_STATE_GET>:
     dc4:	64 02 00 02 	mfsr $r0,$psw
     dc8:	96 04       	xlsb33 $r0,$r0
     dca:	dd 9e       	ret5 $lp

00000dcc <IsFlashBusy>:
     dcc:	84 20       	movi55 $r1,#0x0
     dce:	3c 0c 0a b7 	lwi.gp $r0,[+#0x2adc]
     dd2:	40 00 80 06 	slt $r0,$r1,$r0
     dd6:	dd 9e       	ret5 $lp

00000dd8 <SetFlashBusy>:
     dd8:	84 01       	movi55 $r0,#0x1
     dda:	3c 0e 0a b7 	swi.gp $r0,[+#0x2adc]
     dde:	dd 9e       	ret5 $lp

00000de0 <ClearFlashBusy>:
     de0:	84 00       	movi55 $r0,#0x0
     de2:	3c 0e 0a b7 	swi.gp $r0,[+#0x2adc]
     de6:	dd 9e       	ret5 $lp

00000de8 <Fshc_WDG_Feed>:
     de8:	46 04 00 20 	sethi $r0,#0x40020
     dec:	84 21       	movi55 $r1,#0x1
     dee:	a8 45       	swi333 $r1,[$r0+#0x14]
     df0:	a8 46       	swi333 $r1,[$r0+#0x18]
     df2:	dd 9e       	ret5 $lp
     df4:	dd 9e       	ret5 $lp

00000df6 <Flash_Memset>:
     df6:	84 60       	movi55 $r3,#0x0
     df8:	d5 04       	j8 e00 <Flash_Memset+0xa>
     dfa:	ae 40       	sbi333 $r1,[$r0+#0x0]
     dfc:	8c 61       	addi45 $r3,#0x1
     dfe:	8c 01       	addi45 $r0,#0x1
     e00:	e2 62       	slt45 $r3,$r2
     e02:	e9 fc       	bnezs8 dfa <Flash_Memset+0x4>
     e04:	dd 9e       	ret5 $lp

00000e06 <FshcClkSwitch>:
     e06:	c8 0a       	bnez38 $r0,e1a <FshcClkSwitch+0x14>
     e08:	46 14 00 21 	sethi $r1,#0x40021
     e0c:	04 00 80 09 	lwi $r0,[$r1+#0x24]
     e10:	66 00 00 04 	bitci $r0,$r0,#0x4
     e14:	14 00 80 09 	swi $r0,[$r1+#0x24]
     e18:	dd 9e       	ret5 $lp
     e1a:	9e 89       	subi333 $r2,$r1,#0x1
     e1c:	46 30 5b 8d 	sethi $r3,#0x5b8d
     e20:	50 31 87 ff 	addi $r3,$r3,#0x7ff
     e24:	e2 62       	slt45 $r3,$r2
     e26:	e8 05       	beqzs8 e30 <FshcClkSwitch+0x2a>
     e28:	46 10 5b 8d 	sethi $r1,#0x5b8d
     e2c:	50 10 88 00 	addi $r1,$r1,#0x800
     e30:	5a 08 02 05 	bnec $r0,#0x2,e3a <FshcClkSwitch+0x34>
     e34:	3c 2d ea 99 	lwi.gp $r2,[+#-21916]
     e38:	d5 03       	j8 e3e <FshcClkSwitch+0x38>
     e3a:	3c 2d ea 9a 	lwi.gp $r2,[+#-21912]
     e3e:	40 31 04 57 	divr $r3,$r2,$r2,$r1
     e42:	40 21 20 08 	slli $r2,$r2,#0x8
     e46:	40 11 04 37 	divr $r1,$r1,$r2,$r1
     e4a:	c9 02       	bnez38 $r1,e4e <FshcClkSwitch+0x48>
     e4c:	84 25       	movi55 $r1,#0x5
     e4e:	40 21 a0 08 	slli $r2,$r3,#0x8
     e52:	fe 57       	or33 $r1,$r2
     e54:	46 24 00 21 	sethi $r2,#0x40021
     e58:	14 11 00 14 	swi $r1,[$r2+#0x50]
     e5c:	5a 08 02 09 	bnec $r0,#0x2,e6e <FshcClkSwitch+0x68>
     e60:	04 01 00 09 	lwi $r0,[$r2+#0x24]
     e64:	58 00 00 08 	ori $r0,$r0,#0x8
     e68:	14 01 00 09 	swi $r0,[$r2+#0x24]
     e6c:	d5 09       	j8 e7e <FshcClkSwitch+0x78>
     e6e:	46 14 00 21 	sethi $r1,#0x40021
     e72:	04 00 80 09 	lwi $r0,[$r1+#0x24]
     e76:	66 00 00 08 	bitci $r0,$r0,#0x8
     e7a:	14 00 80 09 	swi $r0,[$r1+#0x24]
     e7e:	46 14 00 21 	sethi $r1,#0x40021
     e82:	04 00 80 09 	lwi $r0,[$r1+#0x24]
     e86:	58 00 00 04 	ori $r0,$r0,#0x4
     e8a:	14 00 80 09 	swi $r0,[$r1+#0x24]
     e8e:	dd 9e       	ret5 $lp

00000e90 <SpiFlashResumDelaySet>:
     e90:	46 14 00 21 	sethi $r1,#0x40021
     e94:	04 10 80 09 	lwi $r1,[$r1+#0x24]
     e98:	42 10 88 0b 	btst $r1,$r1,#0x2
     e9c:	c1 19       	beqz38 $r1,ece <SpiFlashResumDelaySet+0x3e>
     e9e:	46 14 00 21 	sethi $r1,#0x40021
     ea2:	04 10 80 14 	lwi $r1,[$r1+#0x50]
     ea6:	92 28       	srli45 $r1,#0x8
     ea8:	c1 15       	beqz38 $r1,ed2 <SpiFlashResumDelaySet+0x42>
     eaa:	46 14 00 21 	sethi $r1,#0x40021
     eae:	04 20 80 14 	lwi $r2,[$r1+#0x50]
     eb2:	92 48       	srli45 $r2,#0x8
     eb4:	3c 1d ea 9a 	lwi.gp $r1,[+#-21912]
     eb8:	40 10 88 37 	divr $r1,$r1,$r1,$r2
     ebc:	46 24 31 bd 	sethi $r2,#0x431bd
     ec0:	50 21 0e 83 	addi $r2,$r2,#0xe83
     ec4:	42 20 88 69 	mulr64 $r2,$r1,$r2
     ec8:	40 11 c8 09 	srli $r1,$r3,#0x12
     ecc:	d5 04       	j8 ed4 <SpiFlashResumDelaySet+0x44>
     ece:	84 20       	movi55 $r1,#0x0
     ed0:	d5 02       	j8 ed4 <SpiFlashResumDelaySet+0x44>
     ed2:	84 20       	movi55 $r1,#0x0
     ed4:	c1 16       	beqz38 $r1,f00 <SpiFlashResumDelaySet+0x70>
     ed6:	fe 0c       	mul33 $r0,$r1
     ed8:	46 24 00 07 	sethi $r2,#0x40007
     edc:	14 01 00 0f 	swi $r0,[$r2+#0x3c]
     ee0:	fa 04       	movpi45 $r0,#0x14
     ee2:	fe 0c       	mul33 $r0,$r1
     ee4:	96 01       	zeh33 $r0,$r0
     ee6:	94 45       	slli333 $r1,$r0,#0x5
     ee8:	04 31 00 0e 	lwi $r3,[$r2+#0x38]
     eec:	46 0f fe 00 	sethi $r0,#0xffe00
     ef0:	8c 1f       	addi45 $r0,#0x1f
     ef2:	fe 1e       	and33 $r0,$r3
     ef4:	fe 0f       	or33 $r0,$r1
     ef6:	14 01 00 0e 	swi $r0,[$r2+#0x38]
     efa:	84 01       	movi55 $r0,#0x1
     efc:	14 01 00 16 	swi $r0,[$r2+#0x58]
     f00:	84 00       	movi55 $r0,#0x0
     f02:	dd 9e       	ret5 $lp

00000f04 <SpiFlashClkSwitch>:
     f04:	3b ff fc bc 	smw.adm $sp,[$sp],$sp,#0x2    ! {$lp}
     f08:	ef fc       	addi10.sp #-4
     f0a:	49 ff ff 7e 	jal e06 <FshcClkSwitch>
     f0e:	84 00       	movi55 $r0,#0x0
     f10:	ec 04       	addi10.sp #0x4
     f12:	3b ff fc 84 	lmw.bim $sp,[$sp],$sp,#0x2    ! {$lp}
     f16:	dd 9e       	ret5 $lp

00000f18 <flash_exit_2bitcrm>:
     f18:	3b ff fc bc 	smw.adm $sp,[$sp],$sp,#0x2    ! {$lp}
     f1c:	ef fc       	addi10.sp #-4
     f1e:	44 10 00 ff 	movi $r1,#0xff
     f22:	46 04 00 07 	sethi $r0,#0x40007
     f26:	a8 41       	swi333 $r1,[$r0+#0x4]
     f28:	44 00 00 ff 	movi $r0,#0xff
     f2c:	84 27       	movi55 $r1,#0x7
     f2e:	84 40       	movi55 $r2,#0x0
     f30:	44 30 05 00 	movi $r3,#0x500
     f34:	84 80       	movi55 $r4,#0x0
     f36:	49 ff f9 5e 	jal 1f2 <FshcSendCmd>
     f3a:	ec 04       	addi10.sp #0x4
     f3c:	3b ff fc 84 	lmw.bim $sp,[$sp],$sp,#0x2    ! {$lp}
     f40:	dd 9e       	ret5 $lp

00000f42 <ByteRecombineToDword>:
     f42:	a6 80       	lbi333 $r2,[$r0+#0x0]
     f44:	a6 41       	lbi333 $r1,[$r0+#0x1]
     f46:	40 10 a0 08 	slli $r1,$r1,#0x8
     f4a:	fe 8f       	or33 $r2,$r1
     f4c:	a6 42       	lbi333 $r1,[$r0+#0x2]
     f4e:	40 10 c0 08 	slli $r1,$r1,#0x10
     f52:	fe 57       	or33 $r1,$r2
     f54:	a6 03       	lbi333 $r0,[$r0+#0x3]
     f56:	40 00 60 08 	slli $r0,$r0,#0x18
     f5a:	fe 0f       	or33 $r0,$r1
     f5c:	dd 9e       	ret5 $lp

00000f5e <SpiFlashRead>:
     f5e:	3a 6f a8 bc 	smw.adm $r6,[$sp],$r10,#0x2    ! {$r6~$r10, $lp}
     f62:	ef f8       	addi10.sp #-8
     f64:	81 40       	mov55 $r10,$r0
     f66:	80 e1       	mov55 $r7,$r1
     f68:	81 22       	mov55 $r9,$r2
     f6a:	64 02 00 43 	setgie.d
     f6e:	64 00 00 08 	dsb
     f72:	64 00 00 08 	dsb
     f76:	46 04 00 07 	sethi $r0,#0x40007
     f7a:	04 10 00 15 	lwi $r1,[$r0+#0x54]
     f7e:	96 4c       	xlsb33 $r1,$r1
     f80:	c1 03       	beqz38 $r1,f86 <SpiFlashRead+0x28>
     f82:	49 ff fa c6 	jal 50e <SpiFlashResetCRM>
     f86:	80 c9       	mov55 $r6,$r9
     f88:	4e 97 00 87 	blez $r9,1096 <SpiFlashRead+0x138>
     f8c:	40 14 fc 0a 	srai $r1,$r9,#0x1f
     f90:	92 3e       	srli45 $r1,#0x1e
     f92:	40 84 84 00 	add $r8,$r9,$r1
     f96:	54 84 00 03 	andi $r8,$r8,#0x3
     f9a:	8b 01       	sub45 $r8,$r1
     f9c:	46 04 00 07 	sethi $r0,#0x40007
     fa0:	14 a0 00 05 	swi $r10,[$r0+#0x14]
     fa4:	3e 18 57 1c 	addi.gp $r1,#0x571c
     fa8:	a6 8b       	lbi333 $r2,[$r1+#0x3]
     faa:	a6 0c       	lbi333 $r0,[$r1+#0x4]
     fac:	40 00 20 08 	slli $r0,$r0,#0x8
     fb0:	fe 17       	or33 $r0,$r2
     fb2:	a6 8d       	lbi333 $r2,[$r1+#0x5]
     fb4:	40 21 40 08 	slli $r2,$r2,#0x10
     fb8:	fe 17       	or33 $r0,$r2
     fba:	a6 4e       	lbi333 $r1,[$r1+#0x6]
     fbc:	40 10 e0 08 	slli $r1,$r1,#0x18
     fc0:	fe 0f       	or33 $r0,$r1
     fc2:	5a 00 02 1e 	beqc $r0,#0x2,ffe <SpiFlashRead+0xa0>
     fc6:	3e 18 57 1c 	addi.gp $r1,#0x571c
     fca:	a6 8b       	lbi333 $r2,[$r1+#0x3]
     fcc:	a6 0c       	lbi333 $r0,[$r1+#0x4]
     fce:	40 00 20 08 	slli $r0,$r0,#0x8
     fd2:	fe 17       	or33 $r0,$r2
     fd4:	a6 8d       	lbi333 $r2,[$r1+#0x5]
     fd6:	40 21 40 08 	slli $r2,$r2,#0x10
     fda:	fe 17       	or33 $r0,$r2
     fdc:	a6 4e       	lbi333 $r1,[$r1+#0x6]
     fde:	40 10 e0 08 	slli $r1,$r1,#0x18
     fe2:	fe 0f       	or33 $r0,$r1
     fe4:	5a 08 01 13 	bnec $r0,#0x1,100a <SpiFlashRead+0xac>
     fe8:	2e 00 57 1c 	lbi.gp $r0,[+#0x571c]
     fec:	96 00       	zeb33 $r0,$r0
     fee:	5a 08 51 13 	bnec $r0,#0x51,1014 <SpiFlashRead+0xb6>
     ff2:	44 30 03 82 	movi $r3,#0x382
     ff6:	fa 4f       	movpi45 $r2,#0x1f
     ff8:	44 00 00 3b 	movi $r0,#0x3b
     ffc:	d5 11       	j8 101e <SpiFlashRead+0xc0>
     ffe:	44 30 03 8f 	movi $r3,#0x38f
    1002:	84 4b       	movi55 $r2,#0xb
    1004:	44 00 00 eb 	movi $r0,#0xeb
    1008:	d5 0b       	j8 101e <SpiFlashRead+0xc0>
    100a:	44 30 03 80 	movi $r3,#0x380
    100e:	fa 4f       	movpi45 $r2,#0x1f
    1010:	84 0b       	movi55 $r0,#0xb
    1012:	d5 06       	j8 101e <SpiFlashRead+0xc0>
    1014:	44 30 03 8a 	movi $r3,#0x38a
    1018:	84 4f       	movi55 $r2,#0xf
    101a:	44 00 00 bb 	movi $r0,#0xbb
    101e:	84 81       	movi55 $r4,#0x1
    1020:	46 14 00 07 	sethi $r1,#0x40007
    1024:	14 40 80 0a 	swi $r4,[$r1+#0x28]
    1028:	84 27       	movi55 $r1,#0x7
    102a:	50 44 ff ff 	addi $r4,$r9,#-1
    102e:	49 ff f8 e2 	jal 1f2 <FshcSendCmd>
    1032:	d5 25       	j8 107c <SpiFlashRead+0x11e>
    1034:	46 04 00 07 	sethi $r0,#0x40007
    1038:	04 00 00 09 	lwi $r0,[$r0+#0x24]
    103c:	96 04       	xlsb33 $r0,$r0
    103e:	c8 fb       	bnez38 $r0,1034 <SpiFlashRead+0xd6>
    1040:	e4 c4       	sltsi45 $r6,#0x4
    1042:	84 20       	movi55 $r1,#0x0
    1044:	e9 09       	bnezs8 1056 <SpiFlashRead+0xf8>
    1046:	46 04 00 07 	sethi $r0,#0x40007
    104a:	b4 00       	lwi450 $r0,[$r0]
    104c:	aa 39       	swi333.bi $r0,[$r7],#0x4
    104e:	46 04 00 30 	sethi $r0,#0x40030
    1052:	b6 20       	swi450 $r1,[$r0]
    1054:	d5 13       	j8 107a <SpiFlashRead+0x11c>
    1056:	46 04 00 07 	sethi $r0,#0x40007
    105a:	b4 00       	lwi450 $r0,[$r0]
    105c:	f0 81       	swi37.sp $r0,[+#0x4]
    105e:	46 04 00 30 	sethi $r0,#0x40030
    1062:	b6 20       	swi450 $r1,[$r0]
    1064:	84 00       	movi55 $r0,#0x0
    1066:	d5 08       	j8 1076 <SpiFlashRead+0x118>
    1068:	b0 42       	addri36.sp $r1,#0x8
    106a:	88 20       	add45 $r1,$r0
    106c:	00 10 ff fc 	lbi $r1,[$r1+#-4]
    1070:	18 13 80 01 	sbi.bi $r1,[$r7],#0x1
    1074:	8c 01       	addi45 $r0,#0x1
    1076:	e2 08       	slt45 $r0,$r8
    1078:	e9 f8       	bnezs8 1068 <SpiFlashRead+0x10a>
    107a:	8e c4       	subi45 $r6,#0x4
    107c:	4e 66 ff dc 	bgtz $r6,1034 <SpiFlashRead+0xd6>
    1080:	84 20       	movi55 $r1,#0x0
    1082:	46 04 00 07 	sethi $r0,#0x40007
    1086:	14 10 00 0a 	swi $r1,[$r0+#0x28]
    108a:	64 12 00 43 	setgie.e
    108e:	64 00 00 08 	dsb
    1092:	84 00       	movi55 $r0,#0x0
    1094:	d5 03       	j8 109a <SpiFlashRead+0x13c>
    1096:	44 0f ff 06 	movi $r0,#-250
    109a:	ec 08       	addi10.sp #0x8
    109c:	3a 6f a8 84 	lmw.bim $r6,[$sp],$r10,#0x2    ! {$r6~$r10, $lp}
    10a0:	dd 9e       	ret5 $lp

000010a2 <SpiFlashEraseResume>:
    10a2:	3a 6f 98 bc 	smw.adm $r6,[$sp],$r6,#0x2    ! {$r6, $lp}
    10a6:	84 0a       	movi55 $r0,#0xa
    10a8:	49 ff f8 3c 	jal 120 <flash_udelay>
    10ac:	64 02 00 43 	setgie.d
    10b0:	64 00 00 08 	dsb
    10b4:	64 00 00 08 	dsb
    10b8:	46 04 00 07 	sethi $r0,#0x40007
    10bc:	04 00 00 15 	lwi $r0,[$r0+#0x54]
    10c0:	96 04       	xlsb33 $r0,$r0
    10c2:	c0 03       	beqz38 $r0,10c8 <SpiFlashEraseResume+0x26>
    10c4:	49 ff fa 25 	jal 50e <SpiFlashResetCRM>
    10c8:	49 ff fa 41 	jal 54a <SpiFlashResume>
    10cc:	2e 00 57 1c 	lbi.gp $r0,[+#0x571c]
    10d0:	96 00       	zeb33 $r0,$r0
    10d2:	5a 08 ef 07 	bnec $r0,#0xef,10e0 <SpiFlashEraseResume+0x3e>
    10d6:	44 00 00 64 	movi $r0,#0x64
    10da:	49 ff f8 23 	jal 120 <flash_udelay>
    10de:	d5 0f       	j8 10fc <SpiFlashEraseResume+0x5a>
    10e0:	2e 00 57 1c 	lbi.gp $r0,[+#0x571c]
    10e4:	96 00       	zeb33 $r0,$r0
    10e6:	5a 08 20 07 	bnec $r0,#0x20,10f4 <SpiFlashEraseResume+0x52>
    10ea:	49 ff f8 0d 	jal 104 <FlashXmcResumeTimeGet>
    10ee:	49 ff f8 19 	jal 120 <flash_udelay>
    10f2:	d5 05       	j8 10fc <SpiFlashEraseResume+0x5a>
    10f4:	44 00 00 c8 	movi $r0,#0xc8
    10f8:	49 ff f8 14 	jal 120 <flash_udelay>
    10fc:	49 ff fb af 	jal 85a <SpiFlashIsBusy>
    1100:	5c 60 00 01 	slti $r6,$r0,#0x1
    1104:	ce 06       	bnez38 $r6,1110 <SpiFlashEraseResume+0x6e>
    1106:	49 ff fa 3c 	jal 57e <SpiFlashSuspend>
    110a:	fa 0e       	movpi45 $r0,#0x1e
    110c:	49 ff f8 0a 	jal 120 <flash_udelay>
    1110:	64 12 00 43 	setgie.e
    1114:	64 00 00 08 	dsb
    1118:	80 06       	mov55 $r0,$r6
    111a:	3a 6f 98 84 	lmw.bim $r6,[$sp],$r6,#0x2    ! {$r6, $lp}
    111e:	dd 9e       	ret5 $lp

00001120 <SpiFlashWrite>:
    1120:	3a 6f ba bc 	smw.adm $r6,[$sp],$r14,#0xa    ! {$r6~$r14, $fp, $lp}
    1124:	ef fc       	addi10.sp #-4
    1126:	81 40       	mov55 $r10,$r0
    1128:	80 c1       	mov55 $r6,$r1
    112a:	81 02       	mov55 $r8,$r2
    112c:	3e 18 57 1c 	addi.gp $r1,#0x571c
    1130:	00 20 80 08 	lbi $r2,[$r1+#0x8]
    1134:	00 00 80 09 	lbi $r0,[$r1+#0x9]
    1138:	40 00 20 08 	slli $r0,$r0,#0x8
    113c:	fe 17       	or33 $r0,$r2
    113e:	00 20 80 0a 	lbi $r2,[$r1+#0xa]
    1142:	40 21 40 08 	slli $r2,$r2,#0x10
    1146:	fe 17       	or33 $r0,$r2
    1148:	00 10 80 0b 	lbi $r1,[$r1+#0xb]
    114c:	40 10 e0 08 	slli $r1,$r1,#0x18
    1150:	fe 0f       	or33 $r0,$r1
    1152:	40 15 20 00 	add $r1,$r10,$r8
    1156:	e2 01       	slt45 $r0,$r1
    1158:	4e f3 01 4c 	bnez $r15,13f0 <SpiFlashWrite+0x2d0>
    115c:	83 83       	mov55 $fp,$r3
    115e:	64 02 00 43 	setgie.d
    1162:	64 00 00 08 	dsb
    1166:	64 00 00 08 	dsb
    116a:	46 04 00 07 	sethi $r0,#0x40007
    116e:	04 00 00 15 	lwi $r0,[$r0+#0x54]
    1172:	96 04       	xlsb33 $r0,$r0
    1174:	c0 03       	beqz38 $r0,117a <SpiFlashWrite+0x5a>
    1176:	49 ff f9 cc 	jal 50e <SpiFlashResetCRM>
    117a:	54 75 00 ff 	andi $r7,$r10,#0xff
    117e:	40 b4 1c 00 	add $r11,$r8,$r7
    1182:	52 c3 80 00 	subri $r12,$r7,#0x0
    1186:	54 c6 00 03 	andi $r12,$r12,#0x3
    118a:	5c f5 81 00 	slti $r15,$r11,#0x100
    118e:	e9 0a       	bnezs8 11a2 <SpiFlashWrite+0x82>
    1190:	40 95 a0 09 	srli $r9,$r11,#0x8
    1194:	52 83 80 ff 	subri $r8,$r7,#0xff
    1198:	54 b5 80 ff 	andi $r11,$r11,#0xff
    119c:	52 73 81 00 	subri $r7,$r7,#0x100
    11a0:	d5 05       	j8 11aa <SpiFlashWrite+0x8a>
    11a2:	80 e8       	mov55 $r7,$r8
    11a4:	8f 01       	subi45 $r8,#0x1
    11a6:	85 60       	movi55 $r11,#0x0
    11a8:	85 21       	movi55 $r9,#0x1
    11aa:	3e 18 57 1c 	addi.gp $r1,#0x571c
    11ae:	a6 8b       	lbi333 $r2,[$r1+#0x3]
    11b0:	a6 0c       	lbi333 $r0,[$r1+#0x4]
    11b2:	40 00 20 08 	slli $r0,$r0,#0x8
    11b6:	fe 17       	or33 $r0,$r2
    11b8:	a6 8d       	lbi333 $r2,[$r1+#0x5]
    11ba:	40 21 40 08 	slli $r2,$r2,#0x10
    11be:	fe 17       	or33 $r0,$r2
    11c0:	a6 4e       	lbi333 $r1,[$r1+#0x6]
    11c2:	40 10 e0 08 	slli $r1,$r1,#0x18
    11c6:	fe 0f       	or33 $r0,$r1
    11c8:	5a 08 02 0b 	bnec $r0,#0x2,11de <SpiFlashWrite+0xbe>
    11cc:	2e 00 57 23 	lbi.gp $r0,[+#0x5723]
    11d0:	96 00       	zeb33 $r0,$r0
    11d2:	c8 0b       	bnez38 $r0,11e8 <SpiFlashWrite+0xc8>
    11d4:	44 e0 03 40 	movi $r14,#0x340
    11d8:	85 a2       	movi55 $r13,#0x2
    11da:	48 00 00 fe 	j 13d6 <SpiFlashWrite+0x2b6>
    11de:	44 e0 03 40 	movi $r14,#0x340
    11e2:	85 a2       	movi55 $r13,#0x2
    11e4:	48 00 00 f9 	j 13d6 <SpiFlashWrite+0x2b6>
    11e8:	44 e0 03 43 	movi $r14,#0x343
    11ec:	44 d0 00 32 	movi $r13,#0x32
    11f0:	48 00 00 f3 	j 13d6 <SpiFlashWrite+0x2b6>
    11f4:	84 06       	movi55 $r0,#0x6
    11f6:	84 27       	movi55 $r1,#0x7
    11f8:	84 40       	movi55 $r2,#0x0
    11fa:	44 30 07 00 	movi $r3,#0x700
    11fe:	84 80       	movi55 $r4,#0x0
    1200:	49 ff f7 f9 	jal 1f2 <FshcSendCmd>
    1204:	46 24 00 07 	sethi $r2,#0x40007
    1208:	14 a1 00 05 	swi $r10,[$r2+#0x14]
    120c:	a6 70       	lbi333 $r1,[$r6+#0x0]
    120e:	a6 31       	lbi333 $r0,[$r6+#0x1]
    1210:	40 00 20 08 	slli $r0,$r0,#0x8
    1214:	fe 47       	or33 $r1,$r0
    1216:	a6 32       	lbi333 $r0,[$r6+#0x2]
    1218:	40 00 40 08 	slli $r0,$r0,#0x10
    121c:	fe 47       	or33 $r1,$r0
    121e:	a6 33       	lbi333 $r0,[$r6+#0x3]
    1220:	40 00 60 08 	slli $r0,$r0,#0x18
    1224:	fe 0f       	or33 $r0,$r1
    1226:	a8 11       	swi333 $r0,[$r2+#0x4]
    1228:	8c c4       	addi45 $r6,#0x4
    122a:	8e e4       	subi45 $r7,#0x4
    122c:	80 0d       	mov55 $r0,$r13
    122e:	84 27       	movi55 $r1,#0x7
    1230:	fa 47       	movpi45 $r2,#0x17
    1232:	80 6e       	mov55 $r3,$r14
    1234:	80 88       	mov55 $r4,$r8
    1236:	49 ff f7 de 	jal 1f2 <FshcSendCmd>
    123a:	46 04 00 07 	sethi $r0,#0x40007
    123e:	04 00 00 09 	lwi $r0,[$r0+#0x24]
    1242:	96 1e       	bmski33 $r0,#0x3
    1244:	c8 fb       	bnez38 $r0,123a <SpiFlashWrite+0x11a>
    1246:	e4 e4       	sltsi45 $r7,#0x4
    1248:	e9 18       	bnezs8 1278 <SpiFlashWrite+0x158>
    124a:	a6 70       	lbi333 $r1,[$r6+#0x0]
    124c:	a6 31       	lbi333 $r0,[$r6+#0x1]
    124e:	40 00 20 08 	slli $r0,$r0,#0x8
    1252:	fe 47       	or33 $r1,$r0
    1254:	a6 32       	lbi333 $r0,[$r6+#0x2]
    1256:	40 00 40 08 	slli $r0,$r0,#0x10
    125a:	fe 47       	or33 $r1,$r0
    125c:	a6 33       	lbi333 $r0,[$r6+#0x3]
    125e:	40 00 60 08 	slli $r0,$r0,#0x18
    1262:	fe 0f       	or33 $r0,$r1
    1264:	46 14 00 07 	sethi $r1,#0x40007
    1268:	a8 09       	swi333 $r0,[$r1+#0x4]
    126a:	84 20       	movi55 $r1,#0x0
    126c:	46 04 00 30 	sethi $r0,#0x40030
    1270:	b6 20       	swi450 $r1,[$r0]
    1272:	8c c4       	addi45 $r6,#0x4
    1274:	8e e4       	subi45 $r7,#0x4
    1276:	d5 e2       	j8 123a <SpiFlashWrite+0x11a>
    1278:	4e 77 00 18 	blez $r7,12a8 <SpiFlashWrite+0x188>
    127c:	a6 70       	lbi333 $r1,[$r6+#0x0]
    127e:	a6 31       	lbi333 $r0,[$r6+#0x1]
    1280:	40 00 20 08 	slli $r0,$r0,#0x8
    1284:	fe 47       	or33 $r1,$r0
    1286:	a6 32       	lbi333 $r0,[$r6+#0x2]
    1288:	40 00 40 08 	slli $r0,$r0,#0x10
    128c:	fe 47       	or33 $r1,$r0
    128e:	a6 33       	lbi333 $r0,[$r6+#0x3]
    1290:	40 00 60 08 	slli $r0,$r0,#0x18
    1294:	fe 0f       	or33 $r0,$r1
    1296:	46 14 00 07 	sethi $r1,#0x40007
    129a:	a8 09       	swi333 $r0,[$r1+#0x4]
    129c:	84 20       	movi55 $r1,#0x0
    129e:	46 04 00 30 	sethi $r0,#0x40030
    12a2:	b6 20       	swi450 $r1,[$r0]
    12a4:	88 cc       	add45 $r6,$r12
    12a6:	d5 05       	j8 12b0 <SpiFlashWrite+0x190>
    12a8:	c7 04       	beqz38 $r7,12b0 <SpiFlashWrite+0x190>
    12aa:	50 06 7f fc 	addi $r0,$r12,#-4
    12ae:	88 c0       	add45 $r6,$r0
    12b0:	46 04 00 07 	sethi $r0,#0x40007
    12b4:	04 00 00 0b 	lwi $r0,[$r0+#0x2c]
    12b8:	c8 fc       	bnez38 $r0,12b0 <SpiFlashWrite+0x190>
    12ba:	5b c8 01 07 	bnec $fp,#0x1,12c8 <SpiFlashWrite+0x1a8>
    12be:	d5 0f       	j8 12dc <SpiFlashWrite+0x1bc>
    12c0:	44 00 00 64 	movi $r0,#0x64
    12c4:	49 ff f7 2e 	jal 120 <flash_udelay>
    12c8:	49 ff fa c9 	jal 85a <SpiFlashIsBusy>
    12cc:	c8 fa       	bnez38 $r0,12c0 <SpiFlashWrite+0x1a0>
    12ce:	46 14 00 07 	sethi $r1,#0x40007
    12d2:	a0 0a       	lwi333 $r0,[$r1+#0x8]
    12d4:	66 00 00 08 	bitci $r0,$r0,#0x8
    12d8:	a8 0a       	swi333 $r0,[$r1+#0x8]
    12da:	d5 39       	j8 134c <SpiFlashWrite+0x22c>
    12dc:	2e 00 57 1c 	lbi.gp $r0,[+#0x571c]
    12e0:	96 00       	zeb33 $r0,$r0
    12e2:	5a 08 ef 07 	bnec $r0,#0xef,12f0 <SpiFlashWrite+0x1d0>
    12e6:	44 00 00 64 	movi $r0,#0x64
    12ea:	49 ff f7 1b 	jal 120 <flash_udelay>
    12ee:	d5 0f       	j8 130c <SpiFlashWrite+0x1ec>
    12f0:	2e 00 57 1c 	lbi.gp $r0,[+#0x571c]
    12f4:	96 00       	zeb33 $r0,$r0
    12f6:	5a 08 20 07 	bnec $r0,#0x20,1304 <SpiFlashWrite+0x1e4>
    12fa:	49 ff f7 05 	jal 104 <FlashXmcResumeTimeGet>
    12fe:	49 ff f7 11 	jal 120 <flash_udelay>
    1302:	d5 05       	j8 130c <SpiFlashWrite+0x1ec>
    1304:	44 00 00 c8 	movi $r0,#0xc8
    1308:	49 ff f7 0c 	jal 120 <flash_udelay>
    130c:	49 ff f9 39 	jal 57e <SpiFlashSuspend>
    1310:	fa 0e       	movpi45 $r0,#0x1e
    1312:	49 ff f7 07 	jal 120 <flash_udelay>
    1316:	84 01       	movi55 $r0,#0x1
    1318:	3c 0e 0a b7 	swi.gp $r0,[+#0x2adc]
    131c:	64 12 00 43 	setgie.e
    1320:	64 00 00 08 	dsb
    1324:	49 ff fe bf 	jal 10a2 <SpiFlashEraseResume>
    1328:	c0 fe       	beqz38 $r0,1324 <SpiFlashWrite+0x204>
    132a:	64 02 00 43 	setgie.d
    132e:	64 00 00 08 	dsb
    1332:	64 00 00 08 	dsb
    1336:	84 00       	movi55 $r0,#0x0
    1338:	3c 0e 0a b7 	swi.gp $r0,[+#0x2adc]
    133c:	46 04 00 07 	sethi $r0,#0x40007
    1340:	04 00 00 15 	lwi $r0,[$r0+#0x54]
    1344:	96 04       	xlsb33 $r0,$r0
    1346:	c0 03       	beqz38 $r0,134c <SpiFlashWrite+0x22c>
    1348:	49 ff f8 e3 	jal 50e <SpiFlashResetCRM>
    134c:	89 48       	add45 $r10,$r8
    134e:	8d 41       	addi45 $r10,#0x1
    1350:	8f 21       	subi45 $r9,#0x1
    1352:	4e 93 00 3e 	bnez $r9,13ce <SpiFlashWrite+0x2ae>
    1356:	4e b2 00 0a 	beqz $r11,136a <SpiFlashWrite+0x24a>
    135a:	80 eb       	mov55 $r7,$r11
    135c:	54 c5 80 03 	andi $r12,$r11,#0x3
    1360:	50 85 ff ff 	addi $r8,$r11,#-1
    1364:	85 60       	movi55 $r11,#0x0
    1366:	85 21       	movi55 $r9,#0x1
    1368:	d5 37       	j8 13d6 <SpiFlashWrite+0x2b6>
    136a:	3e 18 57 1c 	addi.gp $r1,#0x571c
    136e:	a6 8b       	lbi333 $r2,[$r1+#0x3]
    1370:	a6 0c       	lbi333 $r0,[$r1+#0x4]
    1372:	40 00 20 08 	slli $r0,$r0,#0x8
    1376:	fe 17       	or33 $r0,$r2
    1378:	a6 8d       	lbi333 $r2,[$r1+#0x5]
    137a:	40 21 40 08 	slli $r2,$r2,#0x10
    137e:	fe 17       	or33 $r0,$r2
    1380:	a6 4e       	lbi333 $r1,[$r1+#0x6]
    1382:	40 10 e0 08 	slli $r1,$r1,#0x18
    1386:	fe 0f       	or33 $r0,$r1
    1388:	5a 08 02 29 	bnec $r0,#0x2,13da <SpiFlashWrite+0x2ba>
    138c:	2e 00 57 1c 	lbi.gp $r0,[+#0x571c]
    1390:	96 00       	zeb33 $r0,$r0
    1392:	5a 08 1c 24 	bnec $r0,#0x1c,13da <SpiFlashWrite+0x2ba>
    1396:	46 04 00 07 	sethi $r0,#0x40007
    139a:	04 00 00 15 	lwi $r0,[$r0+#0x54]
    139e:	96 04       	xlsb33 $r0,$r0
    13a0:	c0 0a       	beqz38 $r0,13b4 <SpiFlashWrite+0x294>
    13a2:	44 00 00 ff 	movi $r0,#0xff
    13a6:	84 21       	movi55 $r1,#0x1
    13a8:	84 40       	movi55 $r2,#0x0
    13aa:	44 30 00 30 	movi $r3,#0x30
    13ae:	84 80       	movi55 $r4,#0x0
    13b0:	49 ff f7 21 	jal 1f2 <FshcSendCmd>
    13b4:	44 00 00 ff 	movi $r0,#0xff
    13b8:	84 21       	movi55 $r1,#0x1
    13ba:	84 40       	movi55 $r2,#0x0
    13bc:	44 30 00 30 	movi $r3,#0x30
    13c0:	84 80       	movi55 $r4,#0x0
    13c2:	49 ff f7 18 	jal 1f2 <FshcSendCmd>
    13c6:	84 01       	movi55 $r0,#0x1
    13c8:	3e 00 57 23 	sbi.gp $r0,[+#0x5723]
    13cc:	d5 07       	j8 13da <SpiFlashWrite+0x2ba>
    13ce:	44 80 00 ff 	movi $r8,#0xff
    13d2:	44 70 01 00 	movi $r7,#0x100
    13d6:	4e 93 ff 0f 	bnez $r9,11f4 <SpiFlashWrite+0xd4>
    13da:	64 12 00 43 	setgie.e
    13de:	64 00 00 08 	dsb
    13e2:	46 04 00 07 	sethi $r0,#0x40007
    13e6:	04 00 00 0b 	lwi $r0,[$r0+#0x2c]
    13ea:	96 04       	xlsb33 $r0,$r0
    13ec:	c8 fb       	bnez38 $r0,13e2 <SpiFlashWrite+0x2c2>
    13ee:	d5 03       	j8 13f4 <SpiFlashWrite+0x2d4>
    13f0:	44 0f ff 0c 	movi $r0,#-244
    13f4:	ec 04       	addi10.sp #0x4
    13f6:	3a 6f ba 84 	lmw.bim $r6,[$sp],$r14,#0xa    ! {$r6~$r14, $fp, $lp}
    13fa:	dd 9e       	ret5 $lp

000013fc <SpiFlashGetStatus>:
    13fc:	3b ff fc bc 	smw.adm $sp,[$sp],$sp,#0x2    ! {$lp}
    1400:	ef fc       	addi10.sp #-4
    1402:	64 02 00 43 	setgie.d
    1406:	64 00 00 08 	dsb
    140a:	64 00 00 08 	dsb
    140e:	46 04 00 07 	sethi $r0,#0x40007
    1412:	04 00 00 15 	lwi $r0,[$r0+#0x54]
    1416:	96 04       	xlsb33 $r0,$r0
    1418:	c0 03       	beqz38 $r0,141e <SpiFlashGetStatus+0x22>
    141a:	49 ff f8 7a 	jal 50e <SpiFlashResetCRM>
    141e:	49 ff f9 cb 	jal 7b4 <SpiFlashReadStatus>
    1422:	64 12 00 43 	setgie.e
    1426:	64 00 00 08 	dsb
    142a:	ec 04       	addi10.sp #0x4
    142c:	3b ff fc 84 	lmw.bim $sp,[$sp],$sp,#0x2    ! {$lp}
    1430:	dd 9e       	ret5 $lp

00001432 <SpiFlashFshcStatusSetIdle>:
    1432:	3b ff fc bc 	smw.adm $sp,[$sp],$sp,#0x2    ! {$lp}
    1436:	ef fc       	addi10.sp #-4
    1438:	64 02 00 43 	setgie.d
    143c:	64 00 00 08 	dsb
    1440:	64 00 00 08 	dsb
    1444:	46 04 00 07 	sethi $r0,#0x40007
    1448:	04 00 00 15 	lwi $r0,[$r0+#0x54]
    144c:	96 04       	xlsb33 $r0,$r0
    144e:	c0 03       	beqz38 $r0,1454 <SpiFlashFshcStatusSetIdle+0x22>
    1450:	49 ff f8 5f 	jal 50e <SpiFlashResetCRM>
    1454:	46 04 00 07 	sethi $r0,#0x40007
    1458:	04 00 00 18 	lwi $r0,[$r0+#0x60]
    145c:	c8 fc       	bnez38 $r0,1454 <SpiFlashFshcStatusSetIdle+0x22>
    145e:	46 14 00 07 	sethi $r1,#0x40007
    1462:	a0 0a       	lwi333 $r0,[$r1+#0x8]
    1464:	66 00 00 08 	bitci $r0,$r0,#0x8
    1468:	a8 0a       	swi333 $r0,[$r1+#0x8]
    146a:	49 ff f8 70 	jal 54a <SpiFlashResume>
    146e:	64 12 00 43 	setgie.e
    1472:	64 00 00 08 	dsb
    1476:	ec 04       	addi10.sp #0x4
    1478:	3b ff fc 84 	lmw.bim $sp,[$sp],$sp,#0x2    ! {$lp}
    147c:	dd 9e       	ret5 $lp

0000147e <SpiFlashErase>:
    147e:	3a 6f a8 bc 	smw.adm $r6,[$sp],$r10,#0x2    ! {$r6~$r10, $lp}
    1482:	5a 00 01 05 	beqc $r0,#0x1,148c <SpiFlashErase+0xe>
    1486:	5a 00 02 1f 	beqc $r0,#0x2,14c4 <SpiFlashErase+0x46>
    148a:	d5 38       	j8 14fa <SpiFlashErase+0x7c>
    148c:	3f 08 57 1c 	addi.gp $r16,#0x571c
    1490:	00 58 00 08 	lbi $r5,[$r16+#0x8]
    1494:	00 38 00 09 	lbi $r3,[$r16+#0x9]
    1498:	40 31 a0 08 	slli $r3,$r3,#0x8
    149c:	fe ef       	or33 $r3,$r5
    149e:	00 48 00 0a 	lbi $r4,[$r16+#0xa]
    14a2:	40 42 40 08 	slli $r4,$r4,#0x10
    14a6:	40 52 0c 04 	or $r5,$r4,$r3
    14aa:	00 38 00 0b 	lbi $r3,[$r16+#0xb]
    14ae:	40 31 e0 08 	slli $r3,$r3,#0x18
    14b2:	40 41 94 04 	or $r4,$r3,$r5
    14b6:	9c c9       	addi333 $r3,$r1,#0x1
    14b8:	40 31 b0 08 	slli $r3,$r3,#0xc
    14bc:	e2 83       	slt45 $r4,$r3
    14be:	e8 1e       	beqzs8 14fa <SpiFlashErase+0x7c>
    14c0:	48 00 00 a1 	j 1602 <SpiFlashErase+0x184>
    14c4:	3f 08 57 1c 	addi.gp $r16,#0x571c
    14c8:	00 58 00 08 	lbi $r5,[$r16+#0x8]
    14cc:	00 38 00 09 	lbi $r3,[$r16+#0x9]
    14d0:	40 31 a0 08 	slli $r3,$r3,#0x8
    14d4:	fe ef       	or33 $r3,$r5
    14d6:	00 48 00 0a 	lbi $r4,[$r16+#0xa]
    14da:	40 42 40 08 	slli $r4,$r4,#0x10
    14de:	40 52 0c 04 	or $r5,$r4,$r3
    14e2:	00 38 00 0b 	lbi $r3,[$r16+#0xb]
    14e6:	40 31 e0 08 	slli $r3,$r3,#0x18
    14ea:	40 41 94 04 	or $r4,$r3,$r5
    14ee:	9c c9       	addi333 $r3,$r1,#0x1
    14f0:	40 31 c0 08 	slli $r3,$r3,#0x10
    14f4:	e2 83       	slt45 $r4,$r3
    14f6:	4e f3 00 86 	bnez $r15,1602 <SpiFlashErase+0x184>
    14fa:	81 02       	mov55 $r8,$r2
    14fc:	80 c1       	mov55 $r6,$r1
    14fe:	80 e0       	mov55 $r7,$r0
    1500:	64 02 00 43 	setgie.d
    1504:	64 00 00 08 	dsb
    1508:	64 00 00 08 	dsb
    150c:	46 04 00 07 	sethi $r0,#0x40007
    1510:	04 10 00 15 	lwi $r1,[$r0+#0x54]
    1514:	96 4c       	xlsb33 $r1,$r1
    1516:	c1 03       	beqz38 $r1,151c <SpiFlashErase+0x9e>
    1518:	49 ff f7 fb 	jal 50e <SpiFlashResetCRM>
    151c:	5a 70 01 06 	beqc $r7,#0x1,1528 <SpiFlashErase+0xaa>
    1520:	c7 13       	beqz38 $r7,1546 <SpiFlashErase+0xc8>
    1522:	5a 70 02 0a 	beqc $r7,#0x2,1536 <SpiFlashErase+0xb8>
    1526:	d5 6e       	j8 1602 <SpiFlashErase+0x184>
    1528:	40 13 30 08 	slli $r1,$r6,#0xc
    152c:	44 90 03 00 	movi $r9,#0x300
    1530:	fa c7       	movpi45 $r6,#0x17
    1532:	fb 50       	movpi45 $r10,#0x20
    1534:	d5 0f       	j8 1552 <SpiFlashErase+0xd4>
    1536:	40 13 40 08 	slli $r1,$r6,#0x10
    153a:	44 90 03 00 	movi $r9,#0x300
    153e:	fa c7       	movpi45 $r6,#0x17
    1540:	44 a0 00 d8 	movi $r10,#0xd8
    1544:	d5 07       	j8 1552 <SpiFlashErase+0xd4>
    1546:	44 90 07 00 	movi $r9,#0x700
    154a:	84 c0       	movi55 $r6,#0x0
    154c:	84 20       	movi55 $r1,#0x0
    154e:	44 a0 00 c7 	movi $r10,#0xc7
    1552:	c6 04       	beqz38 $r6,155a <SpiFlashErase+0xdc>
    1554:	46 04 00 07 	sethi $r0,#0x40007
    1558:	a8 45       	swi333 $r1,[$r0+#0x14]
    155a:	84 06       	movi55 $r0,#0x6
    155c:	84 27       	movi55 $r1,#0x7
    155e:	84 40       	movi55 $r2,#0x0
    1560:	44 30 07 00 	movi $r3,#0x700
    1564:	84 80       	movi55 $r4,#0x0
    1566:	49 ff f6 46 	jal 1f2 <FshcSendCmd>
    156a:	80 0a       	mov55 $r0,$r10
    156c:	84 27       	movi55 $r1,#0x7
    156e:	80 46       	mov55 $r2,$r6
    1570:	80 69       	mov55 $r3,$r9
    1572:	84 80       	movi55 $r4,#0x0
    1574:	49 ff f6 3f 	jal 1f2 <FshcSendCmd>
    1578:	46 14 00 07 	sethi $r1,#0x40007
    157c:	04 10 80 0b 	lwi $r1,[$r1+#0x2c]
    1580:	c9 fc       	bnez38 $r1,1578 <SpiFlashErase+0xfa>
    1582:	4e 82 00 08 	beqz $r8,1592 <SpiFlashErase+0x114>
    1586:	c7 06       	beqz38 $r7,1592 <SpiFlashErase+0x114>
    1588:	d5 13       	j8 15ae <SpiFlashErase+0x130>
    158a:	44 00 00 64 	movi $r0,#0x64
    158e:	49 ff f5 c9 	jal 120 <flash_udelay>
    1592:	49 ff f9 64 	jal 85a <SpiFlashIsBusy>
    1596:	c8 fa       	bnez38 $r0,158a <SpiFlashErase+0x10c>
    1598:	46 14 00 07 	sethi $r1,#0x40007
    159c:	a0 0a       	lwi333 $r0,[$r1+#0x8]
    159e:	66 00 00 08 	bitci $r0,$r0,#0x8
    15a2:	a8 0a       	swi333 $r0,[$r1+#0x8]
    15a4:	64 12 00 43 	setgie.e
    15a8:	64 00 00 08 	dsb
    15ac:	d5 2b       	j8 1602 <SpiFlashErase+0x184>
    15ae:	2e 00 57 1c 	lbi.gp $r0,[+#0x571c]
    15b2:	96 00       	zeb33 $r0,$r0
    15b4:	5a 08 ef 07 	bnec $r0,#0xef,15c2 <SpiFlashErase+0x144>
    15b8:	44 00 00 64 	movi $r0,#0x64
    15bc:	49 ff f5 b2 	jal 120 <flash_udelay>
    15c0:	d5 0f       	j8 15de <SpiFlashErase+0x160>
    15c2:	2e 00 57 1c 	lbi.gp $r0,[+#0x571c]
    15c6:	96 00       	zeb33 $r0,$r0
    15c8:	5a 08 20 07 	bnec $r0,#0x20,15d6 <SpiFlashErase+0x158>
    15cc:	49 ff f5 9c 	jal 104 <FlashXmcResumeTimeGet>
    15d0:	49 ff f5 a8 	jal 120 <flash_udelay>
    15d4:	d5 05       	j8 15de <SpiFlashErase+0x160>
    15d6:	44 00 00 c8 	movi $r0,#0xc8
    15da:	49 ff f5 a3 	jal 120 <flash_udelay>
    15de:	49 ff f7 d0 	jal 57e <SpiFlashSuspend>
    15e2:	fa 0e       	movpi45 $r0,#0x1e
    15e4:	49 ff f5 9e 	jal 120 <flash_udelay>
    15e8:	84 01       	movi55 $r0,#0x1
    15ea:	3c 0e 0a b7 	swi.gp $r0,[+#0x2adc]
    15ee:	64 12 00 43 	setgie.e
    15f2:	64 00 00 08 	dsb
    15f6:	49 ff fd 56 	jal 10a2 <SpiFlashEraseResume>
    15fa:	c0 fe       	beqz38 $r0,15f6 <SpiFlashErase+0x178>
    15fc:	84 00       	movi55 $r0,#0x0
    15fe:	3c 0e 0a b7 	swi.gp $r0,[+#0x2adc]
    1602:	3a 6f a8 84 	lmw.bim $r6,[$sp],$r10,#0x2    ! {$r6~$r10, $lp}
    1606:	dd 9e       	ret5 $lp

00001608 <FlashErase>:
    1608:	3a 6f a8 bc 	smw.adm $r6,[$sp],$r10,#0x2    ! {$r6~$r10, $lp}
    160c:	fd 30       	movd44 $r6,$r0
    160e:	54 00 0f ff 	andi $r0,$r0,#0xfff
    1612:	c0 04       	beqz38 $r0,161a <FlashErase+0x12>
    1614:	88 e0       	add45 $r7,$r0
    1616:	66 63 0f ff 	bitci $r6,$r6,#0xfff
    161a:	54 03 8f ff 	andi $r0,$r7,#0xfff
    161e:	c0 05       	beqz38 $r0,1628 <FlashErase+0x20>
    1620:	66 73 8f ff 	bitci $r7,$r7,#0xfff
    1624:	50 73 90 00 	addi $r7,$r7,#0x1000
    1628:	3e 38 57 1c 	addi.gp $r3,#0x571c
    162c:	00 11 80 08 	lbi $r1,[$r3+#0x8]
    1630:	00 01 80 09 	lbi $r0,[$r3+#0x9]
    1634:	40 00 20 08 	slli $r0,$r0,#0x8
    1638:	40 20 80 04 	or $r2,$r1,$r0
    163c:	00 01 80 0a 	lbi $r0,[$r3+#0xa]
    1640:	40 00 40 08 	slli $r0,$r0,#0x10
    1644:	40 10 08 04 	or $r1,$r0,$r2
    1648:	00 01 80 0b 	lbi $r0,[$r3+#0xb]
    164c:	40 00 60 08 	slli $r0,$r0,#0x18
    1650:	fe 0f       	or33 $r0,$r1
    1652:	98 77       	add333 $r1,$r6,$r7
    1654:	e2 01       	slt45 $r0,$r1
    1656:	e9 4a       	bnezs8 16ea <FlashErase+0xe2>
    1658:	44 00 ff ff 	movi $r0,#0xffff
    165c:	e2 07       	slt45 $r0,$r7
    165e:	e8 33       	beqzs8 16c4 <FlashErase+0xbc>
    1660:	40 f3 00 13 	zeh $r15,$r6
    1664:	e8 17       	beqzs8 1692 <FlashErase+0x8a>
    1666:	44 01 00 00 	movi $r0,#0x10000
    166a:	40 90 3c 01 	sub $r9,$r0,$r15
    166e:	93 2c       	srli45 $r9,#0xc
    1670:	85 00       	movi55 $r8,#0x0
    1672:	d5 0e       	j8 168e <FlashErase+0x86>
    1674:	49 ff fb ba 	jal de8 <Fshc_WDG_Feed>
    1678:	84 01       	movi55 $r0,#0x1
    167a:	40 13 30 09 	srli $r1,$r6,#0xc
    167e:	84 40       	movi55 $r2,#0x0
    1680:	49 ff fe ff 	jal 147e <SpiFlashErase>
    1684:	50 73 f0 00 	addi $r7,$r7,#-4096
    1688:	50 63 10 00 	addi $r6,$r6,#0x1000
    168c:	8d 01       	addi45 $r8,#0x1
    168e:	e1 09       	slts45 $r8,$r9
    1690:	e9 f2       	bnezs8 1674 <FlashErase+0x6c>
    1692:	44 00 ff ff 	movi $r0,#0xffff
    1696:	e2 07       	slt45 $r0,$r7
    1698:	e8 16       	beqzs8 16c4 <FlashErase+0xbc>
    169a:	40 93 c0 09 	srli $r9,$r7,#0x10
    169e:	85 00       	movi55 $r8,#0x0
    16a0:	d5 10       	j8 16c0 <FlashErase+0xb8>
    16a2:	49 ff fb a3 	jal de8 <Fshc_WDG_Feed>
    16a6:	84 02       	movi55 $r0,#0x2
    16a8:	40 13 40 09 	srli $r1,$r6,#0x10
    16ac:	84 40       	movi55 $r2,#0x0
    16ae:	49 ff fe e8 	jal 147e <SpiFlashErase>
    16b2:	44 0f 00 00 	movi $r0,#-65536
    16b6:	88 e0       	add45 $r7,$r0
    16b8:	44 01 00 00 	movi $r0,#0x10000
    16bc:	88 c0       	add45 $r6,$r0
    16be:	8d 01       	addi45 $r8,#0x1
    16c0:	e1 09       	slts45 $r8,$r9
    16c2:	e9 f0       	bnezs8 16a2 <FlashErase+0x9a>
    16c4:	40 83 b0 09 	srli $r8,$r7,#0xc
    16c8:	84 e0       	movi55 $r7,#0x0
    16ca:	d5 0c       	j8 16e2 <FlashErase+0xda>
    16cc:	49 ff fb 8e 	jal de8 <Fshc_WDG_Feed>
    16d0:	84 01       	movi55 $r0,#0x1
    16d2:	40 13 30 09 	srli $r1,$r6,#0xc
    16d6:	84 40       	movi55 $r2,#0x0
    16d8:	49 ff fe d3 	jal 147e <SpiFlashErase>
    16dc:	50 63 10 00 	addi $r6,$r6,#0x1000
    16e0:	8c e1       	addi45 $r7,#0x1
    16e2:	e0 e8       	slts45 $r7,$r8
    16e4:	e9 f4       	bnezs8 16cc <FlashErase+0xc4>
    16e6:	84 00       	movi55 $r0,#0x0
    16e8:	d5 03       	j8 16ee <FlashErase+0xe6>
    16ea:	44 0f ff 09 	movi $r0,#-247
    16ee:	3a 6f a8 84 	lmw.bim $r6,[$sp],$r10,#0x2    ! {$r6~$r10, $lp}
    16f2:	dd 9e       	ret5 $lp

000016f4 <SpiFlashInit>:
    16f4:	3a 6f a0 bc 	smw.adm $r6,[$sp],$r8,#0x2    ! {$r6~$r8, $lp}
    16f8:	80 80       	mov55 $r4,$r0
    16fa:	80 e1       	mov55 $r7,$r1
    16fc:	81 02       	mov55 $r8,$r2
    16fe:	80 03       	mov55 $r0,$r3
    1700:	64 02 00 43 	setgie.d
    1704:	64 00 00 08 	dsb
    1708:	64 00 00 08 	dsb
    170c:	80 24       	mov55 $r1,$r4
    170e:	49 ff fb 7c 	jal e06 <FshcClkSwitch>
    1712:	80 07       	mov55 $r0,$r7
    1714:	49 ff f5 51 	jal 1b6 <FshcGpioSet>
    1718:	84 01       	movi55 $r0,#0x1
    171a:	84 24       	movi55 $r1,#0x4
    171c:	49 ff f5 5e 	jal 1d8 <FshcInit>
    1720:	49 ff f6 f7 	jal 50e <SpiFlashResetCRM>
    1724:	84 6a       	movi55 $r3,#0xa
    1726:	d5 16       	j8 1752 <SpiFlashInit+0x5e>
    1728:	49 ff f7 45 	jal 5b2 <SpiFlashReadId>
    172c:	2e 30 57 1c 	lbi.gp $r3,[+#0x571c]
    1730:	96 d8       	zeb33 $r3,$r3
    1732:	5a 30 ff 0c 	beqc $r3,#0xff,174a <SpiFlashInit+0x56>
    1736:	3e 08 57 1c 	addi.gp $r0,#0x571c
    173a:	a6 41       	lbi333 $r1,[$r0+#0x1]
    173c:	a6 c2       	lbi333 $r3,[$r0+#0x2]
    173e:	40 51 a0 08 	slli $r5,$r3,#0x8
    1742:	ff 4f       	or33 $r5,$r1
    1744:	44 00 ff ff 	movi $r0,#0xffff
    1748:	d8 08       	bnes38 $r0,1758 <SpiFlashInit+0x64>
    174a:	84 01       	movi55 $r0,#0x1
    174c:	49 ff f5 28 	jal 19c <flash_delayms>
    1750:	80 66       	mov55 $r3,$r6
    1752:	9e 19       	subi333 $r0,$r3,#0x1
    1754:	97 80       	zeb33 $r6,$r0
    1756:	cb e9       	bnez38 $r3,1728 <SpiFlashInit+0x34>
    1758:	2e 00 57 1c 	lbi.gp $r0,[+#0x571c]
    175c:	96 00       	zeb33 $r0,$r0
    175e:	5a 00 ff 0c 	beqc $r0,#0xff,1776 <SpiFlashInit+0x82>
    1762:	3e 18 57 1c 	addi.gp $r1,#0x571c
    1766:	a6 89       	lbi333 $r2,[$r1+#0x1]
    1768:	a6 0a       	lbi333 $r0,[$r1+#0x2]
    176a:	40 50 20 08 	slli $r5,$r0,#0x8
    176e:	ff 57       	or33 $r5,$r2
    1770:	44 10 ff ff 	movi $r1,#0xffff
    1774:	d9 08       	bnes38 $r1,1784 <SpiFlashInit+0x90>
    1776:	64 12 00 43 	setgie.e
    177a:	64 00 00 08 	dsb
    177e:	44 6f ff 02 	movi $r6,#-254
    1782:	d5 39       	j8 17f4 <SpiFlashInit+0x100>
    1784:	49 ff f6 e3 	jal 54a <SpiFlashResume>
    1788:	44 00 00 32 	movi $r0,#0x32
    178c:	49 ff f4 ca 	jal 120 <flash_udelay>
    1790:	84 c0       	movi55 $r6,#0x0
    1792:	d5 09       	j8 17a4 <SpiFlashInit+0xb0>
    1794:	44 00 00 64 	movi $r0,#0x64
    1798:	49 ff f4 c4 	jal 120 <flash_udelay>
    179c:	8c c1       	addi45 $r6,#0x1
    179e:	5c 33 13 89 	slti $r3,$r6,#0x1389
    17a2:	c3 04       	beqz38 $r3,17aa <SpiFlashInit+0xb6>
    17a4:	49 ff f8 5b 	jal 85a <SpiFlashIsBusy>
    17a8:	c8 f6       	bnez38 $r0,1794 <SpiFlashInit+0xa0>
    17aa:	84 06       	movi55 $r0,#0x6
    17ac:	84 27       	movi55 $r1,#0x7
    17ae:	84 40       	movi55 $r2,#0x0
    17b0:	44 30 07 00 	movi $r3,#0x700
    17b4:	84 80       	movi55 $r4,#0x0
    17b6:	49 ff f5 1e 	jal 1f2 <FshcSendCmd>
    17ba:	84 04       	movi55 $r0,#0x4
    17bc:	84 27       	movi55 $r1,#0x7
    17be:	84 40       	movi55 $r2,#0x0
    17c0:	44 30 07 00 	movi $r3,#0x700
    17c4:	84 80       	movi55 $r4,#0x0
    17c6:	49 ff f5 16 	jal 1f2 <FshcSendCmd>
    17ca:	80 07       	mov55 $r0,$r7
    17cc:	fa 24       	movpi45 $r1,#0x14
    17ce:	49 ff f9 07 	jal 9dc <SpiFlashIOModeCfg>
    17d2:	80 c0       	mov55 $r6,$r0
    17d4:	c8 fb       	bnez38 $r0,17ca <SpiFlashInit+0xd6>
    17d6:	80 07       	mov55 $r0,$r7
    17d8:	80 28       	mov55 $r1,$r8
    17da:	84 41       	movi55 $r2,#0x1
    17dc:	49 ff f5 25 	jal 226 <FshcSpiIOModeCfg>
    17e0:	64 12 00 43 	setgie.e
    17e4:	64 00 00 08 	dsb
    17e8:	40 00 00 09 	nop
    17ec:	40 00 00 09 	nop
    17f0:	40 00 00 09 	nop
    17f4:	80 06       	mov55 $r0,$r6
    17f6:	3a 6f a0 84 	lmw.bim $r6,[$sp],$r8,#0x2    ! {$r6~$r8, $lp}
    17fa:	dd 9e       	ret5 $lp

000017fc <SpiFlashInfoGet>:
    17fc:	3e 08 57 1c 	addi.gp $r0,#0x571c
    1800:	dd 9e       	ret5 $lp
	...

00001804 <SpiFlashIOCtrl>:
    1804:	3a 6f a0 bc 	smw.adm $r6,[$sp],$r8,#0x2    ! {$r6~$r8, $lp}
    1808:	80 c0       	mov55 $r6,$r0
    180a:	49 ff fa dd 	jal dc4 <Flash_GIE_STATE_GET>
    180e:	80 e0       	mov55 $r7,$r0
    1810:	64 02 00 43 	setgie.d
    1814:	64 00 00 08 	dsb
    1818:	64 00 00 08 	dsb
    181c:	9e 71       	subi333 $r1,$r6,#0x1
    181e:	5c 20 80 08 	slti $r2,$r1,#0x8
    1822:	c2 4b       	beqz38 $r2,18b8 <SpiFlashIOCtrl+0xb4>
    1824:	44 f0 18 30 	movi $r15,#0x1830
    1828:	38 17 86 02 	lw $r1,[$r15+($r1<<#0x2)]
    182c:	4a 00 04 00 	jr $r1
    1830:	50 18 00 00 	.word	0x00001850
    1834:	5a 18 00 00 	.word	0x0000185a
    1838:	66 18 00 00 	.word	0x00001866
    183c:	88 18 00 00 	.word	0x00001888
    1840:	94 18 00 00 	.word	0x00001894
    1844:	9c 18 00 00 	.word	0x0000189c
    1848:	a8 18 00 00 	.word	0x000018a8
    184c:	b0 18 00 00 	.word	0x000018b0
    1850:	00 0f 80 10 	lbi $r0,[$sp+#0x10]
    1854:	49 ff fa 00 	jal c54 <SpiFlashWriteLock>
    1858:	d5 31       	j8 18ba <SpiFlashIOCtrl+0xb6>
    185a:	f0 04       	lwi37.sp $r0,[+#0x10]
    185c:	00 1f 80 14 	lbi $r1,[$sp+#0x14]
    1860:	49 ff f9 47 	jal aee <SpiFlashWriteUnLock>
    1864:	d5 2b       	j8 18ba <SpiFlashIOCtrl+0xb6>
    1866:	04 8f 80 04 	lwi $r8,[$sp+#0x10]
    186a:	f6 05       	lwi37.sp $r6,[+#0x14]
    186c:	49 ff f6 a3 	jal 5b2 <SpiFlashReadId>
    1870:	3e 28 57 1c 	addi.gp $r2,#0x571c
    1874:	a6 d1       	lbi333 $r3,[$r2+#0x1]
    1876:	a6 52       	lbi333 $r1,[$r2+#0x2]
    1878:	40 10 a0 08 	slli $r1,$r1,#0x8
    187c:	fe 5f       	or33 $r1,$r3
    187e:	12 14 00 00 	shi $r1,[$r8+#0x0]
    1882:	a6 50       	lbi333 $r1,[$r2+#0x0]
    1884:	ae 70       	sbi333 $r1,[$r6+#0x0]
    1886:	d5 1a       	j8 18ba <SpiFlashIOCtrl+0xb6>
    1888:	f6 04       	lwi37.sp $r6,[+#0x10]
    188a:	49 ff f7 95 	jal 7b4 <SpiFlashReadStatus>
    188e:	b6 06       	swi450 $r0,[$r6]
    1890:	84 00       	movi55 $r0,#0x0
    1892:	d5 14       	j8 18ba <SpiFlashIOCtrl+0xb6>
    1894:	49 ff f6 3d 	jal 50e <SpiFlashResetCRM>
    1898:	84 00       	movi55 $r0,#0x0
    189a:	d5 10       	j8 18ba <SpiFlashIOCtrl+0xb6>
    189c:	f0 04       	lwi37.sp $r0,[+#0x10]
    189e:	02 1f 80 0a 	lhi $r1,[$sp+#0x14]
    18a2:	49 ff f8 9d 	jal 9dc <SpiFlashIOModeCfg>
    18a6:	d5 0a       	j8 18ba <SpiFlashIOCtrl+0xb6>
    18a8:	49 ff f8 fb 	jal a9e <SpiFlashDeepPowerDown>
    18ac:	84 00       	movi55 $r0,#0x0
    18ae:	d5 06       	j8 18ba <SpiFlashIOCtrl+0xb6>
    18b0:	49 ff f9 0f 	jal ace <SpiFlashReleaseFromDeepPowerDown>
    18b4:	84 00       	movi55 $r0,#0x0
    18b6:	d5 02       	j8 18ba <SpiFlashIOCtrl+0xb6>
    18b8:	84 00       	movi55 $r0,#0x0
    18ba:	c7 05       	beqz38 $r7,18c4 <SpiFlashIOCtrl+0xc0>
    18bc:	64 12 00 43 	setgie.e
    18c0:	64 00 00 08 	dsb
    18c4:	3a 6f a0 84 	lmw.bim $r6,[$sp],$r8,#0x2    ! {$r6~$r8, $lp}
    18c8:	dd 9e       	ret5 $lp
    18ca:	92 00       	nop16

Disassembly of section .startup_section:

00001980 <OS_Trap_Interrupt_SWI>:
    1980:	84 00       	movi55 $r0,#0x0
    1982:	64 03 20 03 	mtsr $r0,$int_pend
    1986:	64 02 00 02 	mfsr $r0,$psw
    198a:	9e 02       	subi333 $r0,$r0,#0x2
    198c:	64 02 00 03 	mtsr $r0,$psw
    1990:	3a 2f ef bc 	smw.adm $r2,[$sp],$p1,#0xe    ! {$r2~$p1, $fp, $gp, $lp}
    1994:	42 0e 80 20 	mfusr $r0,$ifc_lp
    1998:	3a 0f 80 3c 	smw.adm $r0,[$sp],$r0,#0x0    ! {$r0}
    199c:	42 2c 80 20 	mfusr $r2,$lb
    19a0:	42 3d 00 20 	mfusr $r3,$le
    19a4:	42 4d 80 20 	mfusr $r4,$lc
    19a8:	3a 2f 90 3c 	smw.adm $r2,[$sp],$r4,#0x0    ! {$r2~$r4}
    19ac:	64 02 00 02 	mfsr $r0,$psw
    19b0:	64 12 a4 02 	mfsr $r1,$ipc
    19b4:	64 22 04 02 	mfsr $r2,$ipsw
    19b8:	3a 0f 88 3c 	smw.adm $r0,[$sp],$r2,#0x0    ! {$r0~$r2}
    19bc:	80 5f       	mov55 $r2,$sp
    19be:	ef fc       	addi10.sp #-4
    19c0:	43 ff 88 09 	bclr $sp,$sp,#0x2
    19c4:	b6 5f       	swi450 $r2,[$sp]
    19c6:	ef f8       	addi10.sp #-8
    19c8:	36 ff 9f fe 	fsdi.bi $fd15,[$sp],#-8
    19cc:	36 ef 9f fe 	fsdi.bi $fd14,[$sp],#-8
    19d0:	36 df 9f fe 	fsdi.bi $fd13,[$sp],#-8
    19d4:	36 cf 9f fe 	fsdi.bi $fd12,[$sp],#-8
    19d8:	36 bf 9f fe 	fsdi.bi $fd11,[$sp],#-8
    19dc:	36 af 9f fe 	fsdi.bi $fd10,[$sp],#-8
    19e0:	36 9f 9f fe 	fsdi.bi $fd9,[$sp],#-8
    19e4:	36 8f 9f fe 	fsdi.bi $fd8,[$sp],#-8
    19e8:	36 7f 9f fe 	fsdi.bi $fd7,[$sp],#-8
    19ec:	36 6f 9f fe 	fsdi.bi $fd6,[$sp],#-8
    19f0:	36 5f 9f fe 	fsdi.bi $fd5,[$sp],#-8
    19f4:	36 4f 9f fe 	fsdi.bi $fd4,[$sp],#-8
    19f8:	36 3f 9f fe 	fsdi.bi $fd3,[$sp],#-8
    19fc:	36 2f 9f fe 	fsdi.bi $fd2,[$sp],#-8
    1a00:	36 1f 9f fe 	fsdi.bi $fd1,[$sp],#-8
    1a04:	36 0f 80 00 	fsdi $fd0,[$sp+#0x0]
    1a08:	84 00       	movi55 $r0,#0x0
    1a0a:	64 08 c0 03 	mtsr $r0,$hsp_ctl
    1a0e:	64 12 00 02 	mfsr $r1,$psw
    1a12:	44 08 ff f8 	movi $r0,#-458760
    1a16:	fe 46       	and33 $r1,$r0
    1a18:	84 01       	movi55 $r0,#0x1
    1a1a:	fe 0f       	or33 $r0,$r1
    1a1c:	64 02 00 03 	mtsr $r0,$psw
    1a20:	64 00 00 08 	dsb
    1a24:	46 32 00 04 	sethi $r3,#0x20004
    1a28:	58 31 87 0c 	ori $r3,$r3,#0x70c
    1a2c:	b4 83       	lwi450 $r4,[$r3]
    1a2e:	15 f2 00 00 	swi $sp,[$r4+#0x0]
    1a32:	46 f0 00 03 	sethi $r15,#0x3
    1a36:	58 f7 8c 0e 	ori $r15,$r15,#0xc0e
    1a3a:	4b e0 3c 01 	jral $lp,$r15
    1a3e:	46 02 00 04 	sethi $r0,#0x20004
    1a42:	58 00 07 0c 	ori $r0,$r0,#0x70c
    1a46:	b4 20       	lwi450 $r1,[$r0]
    1a48:	05 f0 80 00 	lwi $sp,[$r1+#0x0]
    1a4c:	64 02 00 43 	setgie.d
    1a50:	64 00 00 08 	dsb
    1a54:	46 02 00 04 	sethi $r0,#0x20004
    1a58:	58 00 07 0c 	ori $r0,$r0,#0x70c
    1a5c:	b4 20       	lwi450 $r1,[$r0]
    1a5e:	04 00 80 0c 	lwi $r0,[$r1+#0x30]
    1a62:	64 08 c4 03 	mtsr $r0,$sp_bound
    1a66:	84 05       	movi55 $r0,#0x5
    1a68:	64 08 c0 03 	mtsr $r0,$hsp_ctl
    1a6c:	34 0f 90 02 	fldi.bi $fd0,[$sp],#0x8
    1a70:	34 1f 90 02 	fldi.bi $fd1,[$sp],#0x8
    1a74:	34 2f 90 02 	fldi.bi $fd2,[$sp],#0x8
    1a78:	34 3f 90 02 	fldi.bi $fd3,[$sp],#0x8
    1a7c:	34 4f 90 02 	fldi.bi $fd4,[$sp],#0x8
    1a80:	34 5f 90 02 	fldi.bi $fd5,[$sp],#0x8
    1a84:	34 6f 90 02 	fldi.bi $fd6,[$sp],#0x8
    1a88:	34 7f 90 02 	fldi.bi $fd7,[$sp],#0x8
    1a8c:	34 8f 90 02 	fldi.bi $fd8,[$sp],#0x8
    1a90:	34 9f 90 02 	fldi.bi $fd9,[$sp],#0x8
    1a94:	34 af 90 02 	fldi.bi $fd10,[$sp],#0x8
    1a98:	34 bf 90 02 	fldi.bi $fd11,[$sp],#0x8
    1a9c:	34 cf 90 02 	fldi.bi $fd12,[$sp],#0x8
    1aa0:	34 df 90 02 	fldi.bi $fd13,[$sp],#0x8
    1aa4:	34 ef 90 02 	fldi.bi $fd14,[$sp],#0x8
    1aa8:	34 ff 90 02 	fldi.bi $fd15,[$sp],#0x8
    1aac:	05 ff 80 00 	lwi $sp,[$sp+#0x0]
    1ab0:	3a 0f 88 04 	lmw.bim $r0,[$sp],$r2,#0x0    ! {$r0~$r2}
    1ab4:	64 12 a4 03 	mtsr $r1,$ipc
    1ab8:	64 22 04 03 	mtsr $r2,$ipsw
    1abc:	3a 2f 90 04 	lmw.bim $r2,[$sp],$r4,#0x0    ! {$r2~$r4}
    1ac0:	42 2c 80 21 	mtusr $r2,$lb
    1ac4:	42 3d 00 21 	mtusr $r3,$le
    1ac8:	42 4d 80 21 	mtusr $r4,$lc
    1acc:	3a 0f 80 04 	lmw.bim $r0,[$sp],$r0,#0x0    ! {$r0}
    1ad0:	42 0e 80 21 	mtusr $r0,$ifc_lp
    1ad4:	3a 2f ef 84 	lmw.bim $r2,[$sp],$p1,#0xe    ! {$r2~$p1, $fp, $gp, $lp}
    1ad8:	3a 0f 84 04 	lmw.bim $r0,[$sp],$r1,#0x0    ! {$r0~$r1}
    1adc:	64 00 00 04 	iret

00001ae0 <ISR_TABLE>:
    1ae0:	28 23 00 00 	lbsi.bi $r2,[$r6],#0x0
    1ae4:	e2 74       	slt45 $r3,$r20
    1ae6:	00 00 e2 74 	lbi $r0,[$r1+#-7564]
    1aea:	00 00 e2 74 	lbi $r0,[$r1+#-7564]
    1aee:	00 00 e2 74 	lbi $r0,[$r1+#-7564]
    1af2:	00 00 e2 74 	lbi $r0,[$r1+#-7564]
    1af6:	00 00 e2 74 	lbi $r0,[$r1+#-7564]
    1afa:	00 00 e2 74 	lbi $r0,[$r1+#-7564]
    1afe:	00 00 0e 6f 	lbi $r0,[$r0+#0xe6f]
    1b02:	00 00 58 23 	lbi $r0,[$r0+#-10205]
    1b06:	00 00 d8 23 	lbi $r0,[$r1+#-10205]
    1b0a:	00 00 72 24 	lbi $r0,[$r0+#-3548]
    1b0e:	00 00 0c 25 	lbi $r0,[$r0+#0xc25]
    1b12:	00 00 a6 25 	lbi $r0,[$r1+#0x2625]
    1b16:	00 00 40 26 	lbi $r0,[$r0+#-16346]
    1b1a:	00 00 da 26 	lbi $r0,[$r1+#-9690]
    1b1e:	00 00 74 27 	lbi $r0,[$r0+#-3033]
    1b22:	00 00 fe 28 	lbi $r0,[$r1+#-472]
    1b26:	00 00 e2 74 	lbi $r0,[$r1+#-7564]
    1b2a:	00 00 e2 74 	lbi $r0,[$r1+#-7564]
    1b2e:	00 00 cc af 	lbi $r0,[$r1+#-13137]
    1b32:	00 00 e2 74 	lbi $r0,[$r1+#-7564]
    1b36:	00 00 e2 74 	lbi $r0,[$r1+#-7564]
    1b3a:	00 00 e2 74 	lbi $r0,[$r1+#-7564]
    1b3e:	00 00 e2 74 	lbi $r0,[$r1+#-7564]
    1b42:	00 00 e2 74 	lbi $r0,[$r1+#-7564]
    1b46:	00 00 e2 74 	lbi $r0,[$r1+#-7564]
    1b4a:	00 00 e2 74 	lbi $r0,[$r1+#-7564]
    1b4e:	00 00 e2 74 	lbi $r0,[$r1+#-7564]
    1b52:	00 00 e2 74 	lbi $r0,[$r1+#-7564]
    1b56:	00 00 e2 74 	lbi $r0,[$r1+#-7564]
	...

00001b5c <OS_Trap_TLB_Fill>:
    1b5c:	3b ff fc fc 	smw.adm $sp,[$sp],$sp,#0x3    ! {$lp, $sp}
    1b60:	3a 0f d0 3c 	smw.adm $r0,[$sp],$r20,#0x0    ! {$r0~$r20}
    1b64:	80 1f       	mov55 $r0,$sp
    1b66:	84 21       	movi55 $r1,#0x1
    1b68:	48 00 2c be 	j 74e4 <ExceptionCommHandler>

00001b6c <OS_Trap_PTE_Not_Present>:
    1b6c:	3b ff fc fc 	smw.adm $sp,[$sp],$sp,#0x3    ! {$lp, $sp}
    1b70:	3a 0f d0 3c 	smw.adm $r0,[$sp],$r20,#0x0    ! {$r0~$r20}
    1b74:	80 1f       	mov55 $r0,$sp
    1b76:	84 22       	movi55 $r1,#0x2
    1b78:	48 00 2c b6 	j 74e4 <ExceptionCommHandler>

00001b7c <OS_Trap_TLB_Misc>:
    1b7c:	3b ff fc fc 	smw.adm $sp,[$sp],$sp,#0x3    ! {$lp, $sp}
    1b80:	3a 0f d0 3c 	smw.adm $r0,[$sp],$r20,#0x0    ! {$r0~$r20}
    1b84:	80 1f       	mov55 $r0,$sp
    1b86:	84 23       	movi55 $r1,#0x3
    1b88:	48 00 2c ae 	j 74e4 <ExceptionCommHandler>

00001b8c <OS_Trap_TLB_VLPT_Miss>:
    1b8c:	3b ff fc fc 	smw.adm $sp,[$sp],$sp,#0x3    ! {$lp, $sp}
    1b90:	3a 0f d0 3c 	smw.adm $r0,[$sp],$r20,#0x0    ! {$r0~$r20}
    1b94:	80 1f       	mov55 $r0,$sp
    1b96:	84 24       	movi55 $r1,#0x4
    1b98:	48 00 2c a6 	j 74e4 <ExceptionCommHandler>

00001b9c <OS_Trap_Machine_Error>:
    1b9c:	3b ff fc fc 	smw.adm $sp,[$sp],$sp,#0x3    ! {$lp, $sp}
    1ba0:	3a 0f d0 3c 	smw.adm $r0,[$sp],$r20,#0x0    ! {$r0~$r20}
    1ba4:	80 1f       	mov55 $r0,$sp
    1ba6:	84 25       	movi55 $r1,#0x5
    1ba8:	48 00 2c 9e 	j 74e4 <ExceptionCommHandler>

00001bac <OS_Trap_Debug_Related>:
    1bac:	3b ff fc fc 	smw.adm $sp,[$sp],$sp,#0x3    ! {$lp, $sp}
    1bb0:	3a 0f d0 3c 	smw.adm $r0,[$sp],$r20,#0x0    ! {$r0~$r20}
    1bb4:	80 1f       	mov55 $r0,$sp
    1bb6:	84 26       	movi55 $r1,#0x6
    1bb8:	48 00 2c 96 	j 74e4 <ExceptionCommHandler>

00001bbc <OS_Trap_General_Exception>:
    1bbc:	3b ff fc fc 	smw.adm $sp,[$sp],$sp,#0x3    ! {$lp, $sp}
    1bc0:	3a 0f d0 3c 	smw.adm $r0,[$sp],$r20,#0x0    ! {$r0~$r20}
    1bc4:	80 1f       	mov55 $r0,$sp
    1bc6:	84 27       	movi55 $r1,#0x7
    1bc8:	48 00 2c 8e 	j 74e4 <ExceptionCommHandler>

00001bcc <OS_Trap_Syscall>:
    1bcc:	3b ff fc fc 	smw.adm $sp,[$sp],$sp,#0x3    ! {$lp, $sp}
    1bd0:	3a 0f d0 3c 	smw.adm $r0,[$sp],$r20,#0x0    ! {$r0~$r20}
    1bd4:	80 1f       	mov55 $r0,$sp
    1bd6:	84 28       	movi55 $r1,#0x8
    1bd8:	48 00 2c 86 	j 74e4 <ExceptionCommHandler>

00001bdc <OS_Trap_Int_Comm>:
    1bdc:	3a 0f 84 3c 	smw.adm $r0,[$sp],$r1,#0x0    ! {$r0~$r1}
    1be0:	64 12 04 02 	mfsr $r1,$ipsw
    1be4:	54 10 a0 c0 	andi $r1,$r1,#0x20c0
    1be8:	64 02 00 02 	mfsr $r0,$psw
    1bec:	98 01       	add333 $r0,$r0,$r1
    1bee:	64 02 00 03 	mtsr $r0,$psw
    1bf2:	64 00 00 09 	isb
    1bf6:	3a 0f 84 04 	lmw.bim $r0,[$sp],$r1,#0x0    ! {$r0~$r1}
    1bfa:	3a 1f 94 3c 	smw.adm $r1,[$sp],$r5,#0x0    ! {$r1~$r5}
    1bfe:	3a ff ef bc 	smw.adm $r15,[$sp],$p1,#0xe    ! {$r15~$p1, $fp, $gp, $lp}
    1c02:	42 2e 80 20 	mfusr $r2,$ifc_lp
    1c06:	3a 2f 88 3c 	smw.adm $r2,[$sp],$r2,#0x0    ! {$r2}
    1c0a:	42 2c 80 20 	mfusr $r2,$lb
    1c0e:	42 3d 00 20 	mfusr $r3,$le
    1c12:	42 4d 80 20 	mfusr $r4,$lc
    1c16:	3a 2f 90 3c 	smw.adm $r2,[$sp],$r4,#0x0    ! {$r2~$r4}
    1c1a:	64 12 a4 02 	mfsr $r1,$ipc
    1c1e:	64 22 04 02 	mfsr $r2,$ipsw
    1c22:	3a 1f 88 3c 	smw.adm $r1,[$sp],$r2,#0x0    ! {$r1~$r2}
    1c26:	64 12 00 02 	mfsr $r1,$psw
    1c2a:	9e 49       	subi333 $r1,$r1,#0x1
    1c2c:	64 12 00 03 	mtsr $r1,$psw
    1c30:	80 5f       	mov55 $r2,$sp
    1c32:	ef fc       	addi10.sp #-4
    1c34:	43 ff 88 09 	bclr $sp,$sp,#0x2
    1c38:	b6 5f       	swi450 $r2,[$sp]
    1c3a:	ef f8       	addi10.sp #-8
    1c3c:	36 ff 9f fe 	fsdi.bi $fd15,[$sp],#-8
    1c40:	36 ef 9f fe 	fsdi.bi $fd14,[$sp],#-8
    1c44:	36 df 9f fe 	fsdi.bi $fd13,[$sp],#-8
    1c48:	36 cf 9f fe 	fsdi.bi $fd12,[$sp],#-8
    1c4c:	36 bf 9f fe 	fsdi.bi $fd11,[$sp],#-8
    1c50:	36 2f 9f fe 	fsdi.bi $fd2,[$sp],#-8
    1c54:	36 1f 9f fe 	fsdi.bi $fd1,[$sp],#-8
    1c58:	36 0f 80 00 	fsdi $fd0,[$sp+#0x0]
    1c5c:	44 10 1a e0 	movi $r1,#0x1ae0
    1c60:	38 10 82 02 	lw $r1,[$r1+($r0<<#0x2)]
    1c64:	dd 21       	jral5 $r1
    1c66:	34 0f 90 02 	fldi.bi $fd0,[$sp],#0x8
    1c6a:	34 1f 90 02 	fldi.bi $fd1,[$sp],#0x8
    1c6e:	34 2f 90 02 	fldi.bi $fd2,[$sp],#0x8
    1c72:	34 bf 90 02 	fldi.bi $fd11,[$sp],#0x8
    1c76:	34 cf 90 02 	fldi.bi $fd12,[$sp],#0x8
    1c7a:	34 df 90 02 	fldi.bi $fd13,[$sp],#0x8
    1c7e:	34 ef 90 02 	fldi.bi $fd14,[$sp],#0x8
    1c82:	34 ff 90 02 	fldi.bi $fd15,[$sp],#0x8
    1c86:	05 ff 80 00 	lwi $sp,[$sp+#0x0]
    1c8a:	3a 0f 84 04 	lmw.bim $r0,[$sp],$r1,#0x0    ! {$r0~$r1}
    1c8e:	64 02 00 43 	setgie.d
    1c92:	64 00 00 08 	dsb
    1c96:	64 02 a4 03 	mtsr $r0,$ipc
    1c9a:	64 12 04 03 	mtsr $r1,$ipsw
    1c9e:	3a 2f 90 04 	lmw.bim $r2,[$sp],$r4,#0x0    ! {$r2~$r4}
    1ca2:	42 2c 80 21 	mtusr $r2,$lb
    1ca6:	42 3d 00 21 	mtusr $r3,$le
    1caa:	42 4d 80 21 	mtusr $r4,$lc
    1cae:	3a 2f 88 04 	lmw.bim $r2,[$sp],$r2,#0x0    ! {$r2}
    1cb2:	42 2e 80 21 	mtusr $r2,$ifc_lp
    1cb6:	3a ff ef 84 	lmw.bim $r15,[$sp],$p1,#0xe    ! {$r15~$p1, $fp, $gp, $lp}
    1cba:	3a 1f 94 04 	lmw.bim $r1,[$sp],$r5,#0x0    ! {$r1~$r5}
    1cbe:	3a 0f 80 04 	lmw.bim $r0,[$sp],$r0,#0x0    ! {$r0}
    1cc2:	64 00 00 04 	iret

00001cc6 <OS_Trap_Interrupt_HW0>:
    1cc6:	3a 0f 80 3c 	smw.adm $r0,[$sp],$r0,#0x0    ! {$r0}
    1cca:	84 00       	movi55 $r0,#0x0
    1ccc:	48 ff ff 88 	j 1bdc <OS_Trap_Int_Comm>

00001cd0 <OS_Trap_Interrupt_HW1>:
    1cd0:	3a 0f 80 3c 	smw.adm $r0,[$sp],$r0,#0x0    ! {$r0}
    1cd4:	84 01       	movi55 $r0,#0x1
    1cd6:	48 ff ff 83 	j 1bdc <OS_Trap_Int_Comm>

00001cda <OS_Trap_Interrupt_HW2>:
    1cda:	3a 0f 80 3c 	smw.adm $r0,[$sp],$r0,#0x0    ! {$r0}
    1cde:	84 02       	movi55 $r0,#0x2
    1ce0:	48 ff ff 7e 	j 1bdc <OS_Trap_Int_Comm>

00001ce4 <OS_Trap_Interrupt_HW3>:
    1ce4:	3a 0f 80 3c 	smw.adm $r0,[$sp],$r0,#0x0    ! {$r0}
    1ce8:	84 03       	movi55 $r0,#0x3
    1cea:	48 ff ff 79 	j 1bdc <OS_Trap_Int_Comm>

00001cee <OS_Trap_Interrupt_HW4>:
    1cee:	3a 0f 80 3c 	smw.adm $r0,[$sp],$r0,#0x0    ! {$r0}
    1cf2:	84 04       	movi55 $r0,#0x4
    1cf4:	48 ff ff 74 	j 1bdc <OS_Trap_Int_Comm>

00001cf8 <OS_Trap_Interrupt_HW5>:
    1cf8:	3a 0f 84 3c 	smw.adm $r0,[$sp],$r1,#0x0    ! {$r0~$r1}
    1cfc:	3a 0f 84 3c 	smw.adm $r0,[$sp],$r1,#0x0    ! {$r0~$r1}
    1d00:	64 12 04 02 	mfsr $r1,$ipsw
    1d04:	54 10 a0 c0 	andi $r1,$r1,#0x20c0
    1d08:	64 02 00 02 	mfsr $r0,$psw
    1d0c:	98 01       	add333 $r0,$r0,$r1
    1d0e:	64 02 00 03 	mtsr $r0,$psw
    1d12:	64 00 00 09 	isb
    1d16:	3a 0f 84 04 	lmw.bim $r0,[$sp],$r1,#0x0    ! {$r0~$r1}
    1d1a:	48 ff fe 33 	j 1980 <OS_Trap_Interrupt_SWI>

00001d1e <OS_Trap_Interrupt_HW6>:
    1d1e:	3a 0f 80 3c 	smw.adm $r0,[$sp],$r0,#0x0    ! {$r0}
    1d22:	84 06       	movi55 $r0,#0x6
    1d24:	48 ff ff 5c 	j 1bdc <OS_Trap_Int_Comm>

00001d28 <OS_Trap_Interrupt_HW7>:
    1d28:	3a 0f 80 3c 	smw.adm $r0,[$sp],$r0,#0x0    ! {$r0}
    1d2c:	84 07       	movi55 $r0,#0x7
    1d2e:	48 ff ff 57 	j 1bdc <OS_Trap_Int_Comm>

00001d32 <OS_Trap_Interrupt_HW8>:
    1d32:	3a 0f 80 3c 	smw.adm $r0,[$sp],$r0,#0x0    ! {$r0}
    1d36:	84 08       	movi55 $r0,#0x8
    1d38:	48 ff ff 52 	j 1bdc <OS_Trap_Int_Comm>

00001d3c <OS_Trap_Interrupt_HW9>:
    1d3c:	3a 0f 80 3c 	smw.adm $r0,[$sp],$r0,#0x0    ! {$r0}
    1d40:	84 09       	movi55 $r0,#0x9
    1d42:	48 ff ff 4d 	j 1bdc <OS_Trap_Int_Comm>

00001d46 <OS_Trap_Interrupt_HW10>:
    1d46:	3a 0f 80 3c 	smw.adm $r0,[$sp],$r0,#0x0    ! {$r0}
    1d4a:	84 0a       	movi55 $r0,#0xa
    1d4c:	48 ff ff 48 	j 1bdc <OS_Trap_Int_Comm>

00001d50 <OS_Trap_Interrupt_HW11>:
    1d50:	3a 0f 80 3c 	smw.adm $r0,[$sp],$r0,#0x0    ! {$r0}
    1d54:	84 0b       	movi55 $r0,#0xb
    1d56:	48 ff ff 43 	j 1bdc <OS_Trap_Int_Comm>

00001d5a <OS_Trap_Interrupt_HW12>:
    1d5a:	3a 0f 80 3c 	smw.adm $r0,[$sp],$r0,#0x0    ! {$r0}
    1d5e:	84 0c       	movi55 $r0,#0xc
    1d60:	48 ff ff 3e 	j 1bdc <OS_Trap_Int_Comm>

00001d64 <OS_Trap_Interrupt_HW13>:
    1d64:	3a 0f 80 3c 	smw.adm $r0,[$sp],$r0,#0x0    ! {$r0}
    1d68:	84 0d       	movi55 $r0,#0xd
    1d6a:	48 ff ff 39 	j 1bdc <OS_Trap_Int_Comm>

00001d6e <OS_Trap_Interrupt_HW14>:
    1d6e:	3a 0f 80 3c 	smw.adm $r0,[$sp],$r0,#0x0    ! {$r0}
    1d72:	84 0e       	movi55 $r0,#0xe
    1d74:	48 ff ff 34 	j 1bdc <OS_Trap_Int_Comm>

00001d78 <OS_Trap_Interrupt_HW15>:
    1d78:	3a 0f 80 3c 	smw.adm $r0,[$sp],$r0,#0x0    ! {$r0}
    1d7c:	84 0f       	movi55 $r0,#0xf
    1d7e:	48 ff ff 2f 	j 1bdc <OS_Trap_Int_Comm>

00001d82 <OS_Trap_Interrupt_HW16>:
    1d82:	3a 0f 80 3c 	smw.adm $r0,[$sp],$r0,#0x0    ! {$r0}
    1d86:	fa 00       	movpi45 $r0,#0x10
    1d88:	48 ff ff 2a 	j 1bdc <OS_Trap_Int_Comm>

00001d8c <OS_Trap_Interrupt_HW17>:
    1d8c:	3a 0f 80 3c 	smw.adm $r0,[$sp],$r0,#0x0    ! {$r0}
    1d90:	fa 01       	movpi45 $r0,#0x11
    1d92:	48 ff ff 25 	j 1bdc <OS_Trap_Int_Comm>

00001d96 <OS_Trap_Interrupt_HW18>:
    1d96:	3a 0f 80 3c 	smw.adm $r0,[$sp],$r0,#0x0    ! {$r0}
    1d9a:	fa 02       	movpi45 $r0,#0x12
    1d9c:	48 ff ff 20 	j 1bdc <OS_Trap_Int_Comm>

00001da0 <OS_Trap_Interrupt_HW19>:
    1da0:	3a 0f 80 3c 	smw.adm $r0,[$sp],$r0,#0x0    ! {$r0}
    1da4:	fa 03       	movpi45 $r0,#0x13
    1da6:	48 ff ff 1b 	j 1bdc <OS_Trap_Int_Comm>

00001daa <OS_Trap_Interrupt_HW20>:
    1daa:	3a 0f 80 3c 	smw.adm $r0,[$sp],$r0,#0x0    ! {$r0}
    1dae:	fa 04       	movpi45 $r0,#0x14
    1db0:	48 ff ff 16 	j 1bdc <OS_Trap_Int_Comm>

00001db4 <OS_Trap_Interrupt_HW21>:
    1db4:	3a 0f 80 3c 	smw.adm $r0,[$sp],$r0,#0x0    ! {$r0}
    1db8:	fa 05       	movpi45 $r0,#0x15
    1dba:	48 ff ff 11 	j 1bdc <OS_Trap_Int_Comm>

00001dbe <OS_Trap_Interrupt_HW22>:
    1dbe:	3a 0f 80 3c 	smw.adm $r0,[$sp],$r0,#0x0    ! {$r0}
    1dc2:	fa 06       	movpi45 $r0,#0x16
    1dc4:	48 ff ff 0c 	j 1bdc <OS_Trap_Int_Comm>

00001dc8 <OS_Trap_Interrupt_HW23>:
    1dc8:	3a 0f 80 3c 	smw.adm $r0,[$sp],$r0,#0x0    ! {$r0}
    1dcc:	fa 07       	movpi45 $r0,#0x17
    1dce:	48 ff ff 07 	j 1bdc <OS_Trap_Int_Comm>

00001dd2 <OS_Trap_Interrupt_HW24>:
    1dd2:	3a 0f 80 3c 	smw.adm $r0,[$sp],$r0,#0x0    ! {$r0}
    1dd6:	fa 08       	movpi45 $r0,#0x18
    1dd8:	48 ff ff 02 	j 1bdc <OS_Trap_Int_Comm>

00001ddc <OS_Trap_Interrupt_HW25>:
    1ddc:	3a 0f 80 3c 	smw.adm $r0,[$sp],$r0,#0x0    ! {$r0}
    1de0:	fa 09       	movpi45 $r0,#0x19
    1de2:	48 ff fe fd 	j 1bdc <OS_Trap_Int_Comm>

00001de6 <OS_Trap_Interrupt_HW26>:
    1de6:	3a 0f 80 3c 	smw.adm $r0,[$sp],$r0,#0x0    ! {$r0}
    1dea:	fa 0a       	movpi45 $r0,#0x1a
    1dec:	48 ff fe f8 	j 1bdc <OS_Trap_Int_Comm>

00001df0 <OS_Trap_Interrupt_HW27>:
    1df0:	3a 0f 80 3c 	smw.adm $r0,[$sp],$r0,#0x0    ! {$r0}
    1df4:	fa 0b       	movpi45 $r0,#0x1b
    1df6:	48 ff fe f3 	j 1bdc <OS_Trap_Int_Comm>

00001dfa <OS_Trap_Interrupt_HW28>:
    1dfa:	3a 0f 80 3c 	smw.adm $r0,[$sp],$r0,#0x0    ! {$r0}
    1dfe:	fa 0c       	movpi45 $r0,#0x1c
    1e00:	48 ff fe ee 	j 1bdc <OS_Trap_Int_Comm>

00001e04 <OS_Trap_Interrupt_HW29>:
    1e04:	3a 0f 80 3c 	smw.adm $r0,[$sp],$r0,#0x0    ! {$r0}
    1e08:	fa 0d       	movpi45 $r0,#0x1d
    1e0a:	48 ff fe e9 	j 1bdc <OS_Trap_Int_Comm>

00001e0e <OS_Trap_Interrupt_HW30>:
    1e0e:	3a 0f 80 3c 	smw.adm $r0,[$sp],$r0,#0x0    ! {$r0}
    1e12:	fa 0e       	movpi45 $r0,#0x1e
    1e14:	48 ff fe e4 	j 1bdc <OS_Trap_Int_Comm>

00001e18 <OS_Trap_Interrupt_HW31>:
    1e18:	3a 0f 80 3c 	smw.adm $r0,[$sp],$r0,#0x0    ! {$r0}
    1e1c:	44 00 00 1f 	movi $r0,#0x1f
    1e20:	48 ff fe de 	j 1bdc <OS_Trap_Int_Comm>

00001e24 <___start>:
    1e24:	47 d2 00 09 	sethi $gp,#0x20009
    1e28:	59 de 87 28 	ori $gp,$gp,#0x728
    1e2c:	64 00 80 02 	mfsr $r0,$msc_cfg
    1e30:	46 10 10 00 	sethi $r1,#0x1000
    1e34:	40 20 04 02 	and $r2,$r0,$r1
    1e38:	c2 04       	beqz38 $r2,1e40 <___start+0x1c>
    1e3a:	84 00       	movi55 $r0,#0x0
    1e3c:	42 0e 00 21 	mtusr $r0,$itb
    1e40:	64 08 a0 02 	mfsr $r0,$fucpr
    1e44:	58 00 00 01 	ori $r0,$r0,#0x1
    1e48:	64 08 a0 03 	mtsr $r0,$fucpr
    1e4c:	64 00 00 08 	dsb
    1e50:	6a 00 07 01 	fmfcsr $r0
    1e54:	58 00 10 00 	ori $r0,$r0,#0x1000
    1e58:	6a 00 07 09 	fmtcsr $r0
    1e5c:	64 00 00 08 	dsb
    1e60:	3f ff a8 d8 	addi.gp $sp,#-22312
    1e64:	84 00       	movi55 $r0,#0x0
    1e66:	64 05 e4 03 	mtsr $r0,$misc_ctl
    1e6a:	49 00 2c cf 	jal 7808 <__init>
    1e6e:	49 00 2a 9e 	jal 73aa <main>
    1e72:	d5 00       	j8 1e72 <___start+0x4e>

Disassembly of section .deepsleep_section:

00001e74 <Clock_DeepSleepSysClkSelect>:
    1e74:	ca 61       	bnez38 $r2,1f36 <Clock_DeepSleepSysClkSelect+0xc2>
    1e76:	5a 08 01 18 	bnec $r0,#0x1,1ea6 <Clock_DeepSleepSysClkSelect+0x32>
    1e7a:	46 04 00 26 	sethi $r0,#0x40026
    1e7e:	04 00 00 0d 	lwi $r0,[$r0+#0x34]
    1e82:	96 04       	xlsb33 $r0,$r0
    1e84:	5a 08 01 6b 	bnec $r0,#0x1,1f5a <Clock_DeepSleepSysClkSelect+0xe6>
    1e88:	46 04 00 21 	sethi $r0,#0x40021
    1e8c:	04 20 00 09 	lwi $r2,[$r0+#0x24]
    1e90:	66 21 00 02 	bitci $r2,$r2,#0x2
    1e94:	14 20 00 09 	swi $r2,[$r0+#0x24]
    1e98:	04 20 00 09 	lwi $r2,[$r0+#0x24]
    1e9c:	58 21 00 01 	ori $r2,$r2,#0x1
    1ea0:	14 20 00 09 	swi $r2,[$r0+#0x24]
    1ea4:	d5 17       	j8 1ed2 <Clock_DeepSleepSysClkSelect+0x5e>
    1ea6:	5a 08 02 5c 	bnec $r0,#0x2,1f5e <Clock_DeepSleepSysClkSelect+0xea>
    1eaa:	46 04 00 32 	sethi $r0,#0x40032
    1eae:	04 00 00 0d 	lwi $r0,[$r0+#0x34]
    1eb2:	96 04       	xlsb33 $r0,$r0
    1eb4:	c0 57       	beqz38 $r0,1f62 <Clock_DeepSleepSysClkSelect+0xee>
    1eb6:	46 04 00 21 	sethi $r0,#0x40021
    1eba:	04 20 00 09 	lwi $r2,[$r0+#0x24]
    1ebe:	58 21 00 02 	ori $r2,$r2,#0x2
    1ec2:	14 20 00 09 	swi $r2,[$r0+#0x24]
    1ec6:	04 20 00 09 	lwi $r2,[$r0+#0x24]
    1eca:	58 21 00 01 	ori $r2,$r2,#0x1
    1ece:	14 20 00 09 	swi $r2,[$r0+#0x24]
    1ed2:	5a 18 01 19 	bnec $r1,#0x1,1f04 <Clock_DeepSleepSysClkSelect+0x90>
    1ed6:	46 04 00 26 	sethi $r0,#0x40026
    1eda:	04 00 00 0d 	lwi $r0,[$r0+#0x34]
    1ede:	96 04       	xlsb33 $r0,$r0
    1ee0:	5a 08 01 43 	bnec $r0,#0x1,1f66 <Clock_DeepSleepSysClkSelect+0xf2>
    1ee4:	46 04 00 21 	sethi $r0,#0x40021
    1ee8:	04 10 00 09 	lwi $r1,[$r0+#0x24]
    1eec:	66 10 80 08 	bitci $r1,$r1,#0x8
    1ef0:	14 10 00 09 	swi $r1,[$r0+#0x24]
    1ef4:	04 10 00 09 	lwi $r1,[$r0+#0x24]
    1ef8:	58 10 80 04 	ori $r1,$r1,#0x4
    1efc:	14 10 00 09 	swi $r1,[$r0+#0x24]
    1f00:	84 01       	movi55 $r0,#0x1
    1f02:	dd 9e       	ret5 $lp
    1f04:	5a 18 02 33 	bnec $r1,#0x2,1f6a <Clock_DeepSleepSysClkSelect+0xf6>
    1f08:	46 04 00 32 	sethi $r0,#0x40032
    1f0c:	04 00 00 0d 	lwi $r0,[$r0+#0x34]
    1f10:	96 04       	xlsb33 $r0,$r0
    1f12:	5a 08 01 2e 	bnec $r0,#0x1,1f6e <Clock_DeepSleepSysClkSelect+0xfa>
    1f16:	46 04 00 21 	sethi $r0,#0x40021
    1f1a:	04 10 00 09 	lwi $r1,[$r0+#0x24]
    1f1e:	58 10 80 08 	ori $r1,$r1,#0x8
    1f22:	14 10 00 09 	swi $r1,[$r0+#0x24]
    1f26:	04 10 00 09 	lwi $r1,[$r0+#0x24]
    1f2a:	58 10 80 04 	ori $r1,$r1,#0x4
    1f2e:	14 10 00 09 	swi $r1,[$r0+#0x24]
    1f32:	84 01       	movi55 $r0,#0x1
    1f34:	dd 9e       	ret5 $lp
    1f36:	fe 47       	or33 $r1,$r0
    1f38:	c9 1d       	bnez38 $r1,1f72 <Clock_DeepSleepSysClkSelect+0xfe>
    1f3a:	46 04 00 21 	sethi $r0,#0x40021
    1f3e:	04 10 00 09 	lwi $r1,[$r0+#0x24]
    1f42:	66 10 80 04 	bitci $r1,$r1,#0x4
    1f46:	14 10 00 09 	swi $r1,[$r0+#0x24]
    1f4a:	04 10 00 09 	lwi $r1,[$r0+#0x24]
    1f4e:	66 10 80 01 	bitci $r1,$r1,#0x1
    1f52:	14 10 00 09 	swi $r1,[$r0+#0x24]
    1f56:	84 01       	movi55 $r0,#0x1
    1f58:	dd 9e       	ret5 $lp
    1f5a:	84 00       	movi55 $r0,#0x0
    1f5c:	dd 9e       	ret5 $lp
    1f5e:	84 00       	movi55 $r0,#0x0
    1f60:	dd 9e       	ret5 $lp
    1f62:	84 00       	movi55 $r0,#0x0
    1f64:	dd 9e       	ret5 $lp
    1f66:	84 00       	movi55 $r0,#0x0
    1f68:	dd 9e       	ret5 $lp
    1f6a:	84 00       	movi55 $r0,#0x0
    1f6c:	dd 9e       	ret5 $lp
    1f6e:	84 00       	movi55 $r0,#0x0
    1f70:	dd 9e       	ret5 $lp
    1f72:	84 00       	movi55 $r0,#0x0
    1f74:	dd 9e       	ret5 $lp

00001f76 <Power_GotoDeepSleep>:
    1f76:	3a 6f 98 bc 	smw.adm $r6,[$sp],$r6,#0x2    ! {$r6, $lp}
    1f7a:	84 07       	movi55 $r0,#0x7
    1f7c:	49 ff fc 44 	jal 1804 <SpiFlashIOCtrl>
    1f80:	49 00 2c 61 	jal 7842 <GIE_STATE_GET>
    1f84:	80 c0       	mov55 $r6,$r0
    1f86:	49 00 2c 57 	jal 7834 <GIE_DISABLE>
    1f8a:	46 14 00 10 	sethi $r1,#0x40010
    1f8e:	00 00 80 b8 	lbi $r0,[$r1+#0xb8]
    1f92:	58 00 00 04 	ori $r0,$r0,#0x4
    1f96:	10 00 80 b8 	sbi $r0,[$r1+#0xb8]
    1f9a:	00 00 80 bc 	lbi $r0,[$r1+#0xbc]
    1f9e:	58 00 00 02 	ori $r0,$r0,#0x2
    1fa2:	10 00 80 bc 	sbi $r0,[$r1+#0xbc]
    1fa6:	00 00 80 c0 	lbi $r0,[$r1+#0xc0]
    1faa:	58 00 00 02 	ori $r0,$r0,#0x2
    1fae:	10 00 80 c0 	sbi $r0,[$r1+#0xc0]
    1fb2:	00 00 80 c4 	lbi $r0,[$r1+#0xc4]
    1fb6:	58 00 00 02 	ori $r0,$r0,#0x2
    1fba:	10 00 80 c4 	sbi $r0,[$r1+#0xc4]
    1fbe:	00 00 80 c8 	lbi $r0,[$r1+#0xc8]
    1fc2:	66 00 00 01 	bitci $r0,$r0,#0x1
    1fc6:	10 00 80 c8 	sbi $r0,[$r1+#0xc8]
    1fca:	00 00 80 c8 	lbi $r0,[$r1+#0xc8]
    1fce:	58 00 00 08 	ori $r0,$r0,#0x8
    1fd2:	10 00 80 c8 	sbi $r0,[$r1+#0xc8]
    1fd6:	00 00 80 cc 	lbi $r0,[$r1+#0xcc]
    1fda:	66 00 00 01 	bitci $r0,$r0,#0x1
    1fde:	10 00 80 cc 	sbi $r0,[$r1+#0xcc]
    1fe2:	00 00 80 cc 	lbi $r0,[$r1+#0xcc]
    1fe6:	58 00 00 08 	ori $r0,$r0,#0x8
    1fea:	10 00 80 cc 	sbi $r0,[$r1+#0xcc]
    1fee:	64 00 00 20 	standby wake_grant
    1ff2:	00 00 80 b8 	lbi $r0,[$r1+#0xb8]
    1ff6:	66 00 00 04 	bitci $r0,$r0,#0x4
    1ffa:	10 00 80 b8 	sbi $r0,[$r1+#0xb8]
    1ffe:	00 00 80 bc 	lbi $r0,[$r1+#0xbc]
    2002:	58 00 00 02 	ori $r0,$r0,#0x2
    2006:	10 00 80 bc 	sbi $r0,[$r1+#0xbc]
    200a:	00 00 80 c0 	lbi $r0,[$r1+#0xc0]
    200e:	66 00 00 02 	bitci $r0,$r0,#0x2
    2012:	10 00 80 c0 	sbi $r0,[$r1+#0xc0]
    2016:	00 00 80 c4 	lbi $r0,[$r1+#0xc4]
    201a:	66 00 00 02 	bitci $r0,$r0,#0x2
    201e:	10 00 80 c4 	sbi $r0,[$r1+#0xc4]
    2022:	00 20 80 c8 	lbi $r2,[$r1+#0xc8]
    2026:	66 21 00 01 	bitci $r2,$r2,#0x1
    202a:	10 20 80 c8 	sbi $r2,[$r1+#0xc8]
    202e:	00 20 80 c8 	lbi $r2,[$r1+#0xc8]
    2032:	66 21 00 08 	bitci $r2,$r2,#0x8
    2036:	10 20 80 c8 	sbi $r2,[$r1+#0xc8]
    203a:	00 20 80 cc 	lbi $r2,[$r1+#0xcc]
    203e:	66 21 00 01 	bitci $r2,$r2,#0x1
    2042:	10 20 80 cc 	sbi $r2,[$r1+#0xcc]
    2046:	00 20 80 cc 	lbi $r2,[$r1+#0xcc]
    204a:	66 21 00 08 	bitci $r2,$r2,#0x8
    204e:	10 20 80 cc 	sbi $r2,[$r1+#0xcc]
    2052:	84 08       	movi55 $r0,#0x8
    2054:	49 ff fb d8 	jal 1804 <SpiFlashIOCtrl>
    2058:	c6 03       	beqz38 $r6,205e <Power_GotoDeepSleep+0xe8>
    205a:	49 00 2b e8 	jal 782a <GIE_ENABLE>
    205e:	3a 6f 98 84 	lmw.bim $r6,[$sp],$r6,#0x2    ! {$r6, $lp}
    2062:	dd 9e       	ret5 $lp

Disassembly of section .tcm_section:

00002064 <Clock_CoreClkDivSet>:
    2064:	44 20 01 00 	movi $r2,#0x100
    2068:	40 11 00 06 	slt $r1,$r2,$r0
    206c:	40 01 04 1b 	cmovn $r0,$r2,$r1
    2070:	c0 05       	beqz38 $r0,207a <Clock_CoreClkDivSet+0x16>
    2072:	8e 01       	subi45 $r0,#0x1
    2074:	46 14 00 21 	sethi $r1,#0x40021
    2078:	a8 0a       	swi333 $r0,[$r1+#0x8]
    207a:	dd 9e       	ret5 $lp

0000207c <Clock_CoreClkDivGet>:
    207c:	46 04 00 21 	sethi $r0,#0x40021
    2080:	a0 02       	lwi333 $r0,[$r0+#0x8]
    2082:	8c 01       	addi45 $r0,#0x1
    2084:	dd 9e       	ret5 $lp

00002086 <Clock_SysClkDivGet>:
    2086:	46 04 00 21 	sethi $r0,#0x40021
    208a:	04 00 00 09 	lwi $r0,[$r0+#0x24]
    208e:	42 00 34 0b 	btst $r0,$r0,#0xd
    2092:	5a 00 01 07 	beqc $r0,#0x1,20a0 <Clock_SysClkDivGet+0x1a>
    2096:	46 04 00 21 	sethi $r0,#0x40021
    209a:	a0 03       	lwi333 $r0,[$r0+#0xc]
    209c:	8c 01       	addi45 $r0,#0x1
    209e:	dd 9e       	ret5 $lp
    20a0:	84 01       	movi55 $r0,#0x1
    20a2:	dd 9e       	ret5 $lp

000020a4 <Clock_PllFreqGet>:
    20a4:	3c 0d ea 9a 	lwi.gp $r0,[+#-21912]
    20a8:	dd 9e       	ret5 $lp

000020aa <Clock_APllFreqGet>:
    20aa:	3c 0d ea 99 	lwi.gp $r0,[+#-21916]
    20ae:	dd 9e       	ret5 $lp

000020b0 <Clock_CoreClockFreqGet>:
    20b0:	3a 6f 98 bc 	smw.adm $r6,[$sp],$r6,#0x2    ! {$r6, $lp}
    20b4:	ef f8       	addi10.sp #-8
    20b6:	46 04 00 21 	sethi $r0,#0x40021
    20ba:	50 00 00 24 	addi $r0,$r0,#0x24
    20be:	b4 00       	lwi450 $r0,[$r0]
    20c0:	96 04       	xlsb33 $r0,$r0
    20c2:	96 00       	zeb33 $r0,$r0
    20c4:	5a 08 01 1e 	bnec $r0,#0x1,2100 <Clock_CoreClockFreqGet+0x50>
    20c8:	46 04 00 21 	sethi $r0,#0x40021
    20cc:	50 00 00 24 	addi $r0,$r0,#0x24
    20d0:	b4 00       	lwi450 $r0,[$r0]
    20d2:	92 01       	srli45 $r0,#0x1
    20d4:	96 04       	xlsb33 $r0,$r0
    20d6:	96 00       	zeb33 $r0,$r0
    20d8:	5a 08 01 0b 	bnec $r0,#0x1,20ee <Clock_CoreClockFreqGet+0x3e>
    20dc:	49 ff ff e7 	jal 20aa <Clock_APllFreqGet>
    20e0:	80 c0       	mov55 $r6,$r0
    20e2:	49 ff ff cd 	jal 207c <Clock_CoreClkDivGet>
    20e6:	40 03 00 37 	divr $r0,$r1,$r6,$r0
    20ea:	f0 81       	swi37.sp $r0,[+#0x4]
    20ec:	d5 13       	j8 2112 <Clock_CoreClockFreqGet+0x62>
    20ee:	49 ff ff db 	jal 20a4 <Clock_PllFreqGet>
    20f2:	80 c0       	mov55 $r6,$r0
    20f4:	49 ff ff c4 	jal 207c <Clock_CoreClkDivGet>
    20f8:	40 03 00 37 	divr $r0,$r1,$r6,$r0
    20fc:	f0 81       	swi37.sp $r0,[+#0x4]
    20fe:	d5 0a       	j8 2112 <Clock_CoreClockFreqGet+0x62>
    2100:	84 00       	movi55 $r0,#0x0
    2102:	49 00 31 70 	jal 83e2 <Clock_RcFreqGet>
    2106:	80 c0       	mov55 $r6,$r0
    2108:	49 ff ff ba 	jal 207c <Clock_CoreClkDivGet>
    210c:	40 03 00 37 	divr $r0,$r1,$r6,$r0
    2110:	f0 81       	swi37.sp $r0,[+#0x4]
    2112:	f0 01       	lwi37.sp $r0,[+#0x4]
    2114:	ec 08       	addi10.sp #0x8
    2116:	3a 6f 98 84 	lmw.bim $r6,[$sp],$r6,#0x2    ! {$r6, $lp}
    211a:	dd 9e       	ret5 $lp

0000211c <Clock_SysClockFreqGet>:
    211c:	3b ff fc bc 	smw.adm $sp,[$sp],$sp,#0x2    ! {$lp}
    2120:	ef f4       	addi10.sp #-12
    2122:	49 ff ff c7 	jal 20b0 <Clock_CoreClockFreqGet>
    2126:	f0 81       	swi37.sp $r0,[+#0x4]
    2128:	46 04 00 21 	sethi $r0,#0x40021
    212c:	50 00 00 24 	addi $r0,$r0,#0x24
    2130:	b4 00       	lwi450 $r0,[$r0]
    2132:	92 0d       	srli45 $r0,#0xd
    2134:	96 04       	xlsb33 $r0,$r0
    2136:	96 00       	zeb33 $r0,$r0
    2138:	c8 08       	bnez38 $r0,2148 <Clock_SysClockFreqGet+0x2c>
    213a:	49 ff ff a6 	jal 2086 <Clock_SysClkDivGet>
    213e:	80 20       	mov55 $r1,$r0
    2140:	f0 01       	lwi37.sp $r0,[+#0x4]
    2142:	40 00 04 37 	divr $r0,$r1,$r0,$r1
    2146:	f0 81       	swi37.sp $r0,[+#0x4]
    2148:	f0 01       	lwi37.sp $r0,[+#0x4]
    214a:	ec 0c       	addi10.sp #0xc
    214c:	3b ff fc 84 	lmw.bim $sp,[$sp],$sp,#0x2    ! {$lp}
    2150:	dd 9e       	ret5 $lp

00002152 <Clock_SysClkDivSet>:
    2152:	44 20 00 40 	movi $r2,#0x40
    2156:	40 11 00 06 	slt $r1,$r2,$r0
    215a:	40 01 04 1b 	cmovn $r0,$r2,$r1
    215e:	5c 10 00 02 	slti $r1,$r0,#0x2
    2162:	c1 16       	beqz38 $r1,218e <Clock_SysClkDivSet+0x3c>
    2164:	3b ff fc bc 	smw.adm $sp,[$sp],$sp,#0x2    ! {$lp}
    2168:	ef fc       	addi10.sp #-4
    216a:	49 ff ff a3 	jal 20b0 <Clock_CoreClockFreqGet>
    216e:	46 10 89 54 	sethi $r1,#0x8954
    2172:	50 10 83 ff 	addi $r1,$r1,#0x3ff
    2176:	40 00 80 06 	slt $r0,$r1,$r0
    217a:	c8 15       	bnez38 $r0,21a4 <Clock_SysClkDivSet+0x52>
    217c:	46 14 00 21 	sethi $r1,#0x40021
    2180:	04 00 80 09 	lwi $r0,[$r1+#0x24]
    2184:	58 00 20 00 	ori $r0,$r0,#0x2000
    2188:	14 00 80 09 	swi $r0,[$r1+#0x24]
    218c:	d5 0c       	j8 21a4 <Clock_SysClkDivSet+0x52>
    218e:	8e 01       	subi45 $r0,#0x1
    2190:	46 14 00 21 	sethi $r1,#0x40021
    2194:	a8 0b       	swi333 $r0,[$r1+#0xc]
    2196:	04 00 80 09 	lwi $r0,[$r1+#0x24]
    219a:	66 00 20 00 	bitci $r0,$r0,#0x2000
    219e:	14 00 80 09 	swi $r0,[$r1+#0x24]
    21a2:	dd 9e       	ret5 $lp
    21a4:	ec 04       	addi10.sp #0x4
    21a6:	3b ff fc 84 	lmw.bim $sp,[$sp],$sp,#0x2    ! {$lp}
    21aa:	dd 9e       	ret5 $lp

000021ac <GPIO_RegOneBitSet>:
    21ac:	46 34 00 10 	sethi $r3,#0x40010
    21b0:	38 21 82 02 	lw $r2,[$r3+($r0<<#0x2)]
    21b4:	fe 57       	or33 $r1,$r2
    21b6:	38 11 82 0a 	sw $r1,[$r3+($r0<<#0x2)]
    21ba:	dd 9e       	ret5 $lp

000021bc <GPIO_RegOneBitClear>:
    21bc:	46 34 00 10 	sethi $r3,#0x40010
    21c0:	38 21 82 02 	lw $r2,[$r3+($r0<<#0x2)]
    21c4:	40 11 04 12 	bitc $r1,$r2,$r1
    21c8:	38 11 82 0a 	sw $r1,[$r3+($r0<<#0x2)]
    21cc:	dd 9e       	ret5 $lp
	...

000021d0 <DelayMs>:
    21d0:	c0 28       	beqz38 $r0,2220 <DelayMs+0x50>
    21d2:	3a 6f 98 bc 	smw.adm $r6,[$sp],$r6,#0x2    ! {$r6, $lp}
    21d6:	46 14 00 21 	sethi $r1,#0x40021
    21da:	04 10 80 09 	lwi $r1,[$r1+#0x24]
    21de:	96 4c       	xlsb33 $r1,$r1
    21e0:	5a 18 01 11 	bnec $r1,#0x1,2202 <DelayMs+0x32>
    21e4:	80 c0       	mov55 $r6,$r0
    21e6:	49 ff ff 65 	jal 20b0 <Clock_CoreClockFreqGet>
    21ea:	66 00 00 01 	bitci $r0,$r0,#0x1
    21ee:	46 11 06 24 	sethi $r1,#0x10624
    21f2:	50 10 8d d3 	addi $r1,$r1,#0xdd3
    21f6:	42 00 04 69 	mulr64 $r0,$r0,$r1
    21fa:	92 27       	srli45 $r1,#0x7
    21fc:	42 00 98 24 	mul $r0,$r1,$r6
    2200:	d5 04       	j8 2208 <DelayMs+0x38>
    2202:	44 10 17 70 	movi $r1,#0x1770
    2206:	fe 0c       	mul33 $r0,$r1
    2208:	5c f0 00 97 	slti $r15,$r0,#0x97
    220c:	e9 03       	bnezs8 2212 <DelayMs+0x42>
    220e:	50 00 7f 6a 	addi $r0,$r0,#-150
    2212:	c0 05       	beqz38 $r0,221c <DelayMs+0x4c>
    2214:	50 00 7f ff 	addi $r0,$r0,#-1
    2218:	4e 06 ff fe 	bgtz $r0,2214 <DelayMs+0x44>
    221c:	3a 6f 98 84 	lmw.bim $r6,[$sp],$r6,#0x2    ! {$r6, $lp}
    2220:	dd 9e       	ret5 $lp

00002222 <__udelay>:
    2222:	c0 27       	beqz38 $r0,2270 <__udelay+0x4e>
    2224:	3a 6f 98 bc 	smw.adm $r6,[$sp],$r6,#0x2    ! {$r6, $lp}
    2228:	46 14 00 21 	sethi $r1,#0x40021
    222c:	04 10 80 09 	lwi $r1,[$r1+#0x24]
    2230:	96 4c       	xlsb33 $r1,$r1
    2232:	5a 18 01 11 	bnec $r1,#0x1,2254 <__udelay+0x32>
    2236:	80 c0       	mov55 $r6,$r0
    2238:	49 ff ff 3c 	jal 20b0 <Clock_CoreClockFreqGet>
    223c:	66 00 00 01 	bitci $r0,$r0,#0x1
    2240:	46 14 31 bd 	sethi $r1,#0x431bd
    2244:	50 10 8e 83 	addi $r1,$r1,#0xe83
    2248:	42 00 04 69 	mulr64 $r0,$r0,$r1
    224c:	92 33       	srli45 $r1,#0x13
    224e:	42 00 98 24 	mul $r0,$r1,$r6
    2252:	d5 03       	j8 2258 <__udelay+0x36>
    2254:	84 26       	movi55 $r1,#0x6
    2256:	fe 0c       	mul33 $r0,$r1
    2258:	5c f0 00 97 	slti $r15,$r0,#0x97
    225c:	e9 03       	bnezs8 2262 <__udelay+0x40>
    225e:	50 00 7f 6a 	addi $r0,$r0,#-150
    2262:	c0 05       	beqz38 $r0,226c <__udelay+0x4a>
    2264:	50 00 7f ff 	addi $r0,$r0,#-1
    2268:	4e 06 ff fe 	bgtz $r0,2264 <__udelay+0x42>
    226c:	3a 6f 98 84 	lmw.bim $r6,[$sp],$r6,#0x2    ! {$r6, $lp}
    2270:	dd 9e       	ret5 $lp
    2272:	92 00       	nop16

00002274 <Timer_InterruptFlagClear>:
    2274:	e6 06       	slti45 $r0,#0x6
    2276:	e8 26       	beqzs8 22c2 <Timer_InterruptFlagClear+0x4e>
    2278:	44 f0 22 84 	movi $r15,#0x2284
    227c:	38 07 82 02 	lw $r0,[$r15+($r0<<#0x2)]
    2280:	4a 00 00 00 	jr $r0
    2284:	9c 22       	addi333 $r0,$r4,#0x2
    2286:	00 00 c6 22 	lbi $r0,[$r1+#-14814]
    228a:	00 00 a2 22 	lbi $r0,[$r1+#0x2222]
    228e:	00 00 a8 22 	lbi $r0,[$r1+#0x2822]
    2292:	00 00 b2 22 	lbi $r0,[$r1+#0x3222]
    2296:	00 00 b8 22 	lbi $r0,[$r1+#0x3822]
    229a:	00 00 46 04 	lbi $r0,[$r0+#-14844]
    229e:	00 2b d5 17 	lbi $r2,[$r23+#-10985]
    22a2:	46 04 00 2c 	sethi $r0,#0x4002c
    22a6:	d5 14       	j8 22ce <Timer_InterruptFlagClear+0x5a>
    22a8:	46 04 00 2c 	sethi $r0,#0x4002c
    22ac:	50 00 08 00 	addi $r0,$r0,#0x800
    22b0:	d5 0f       	j8 22ce <Timer_InterruptFlagClear+0x5a>
    22b2:	46 04 00 2f 	sethi $r0,#0x4002f
    22b6:	d5 0c       	j8 22ce <Timer_InterruptFlagClear+0x5a>
    22b8:	46 04 00 2f 	sethi $r0,#0x4002f
    22bc:	50 00 08 00 	addi $r0,$r0,#0x800
    22c0:	d5 07       	j8 22ce <Timer_InterruptFlagClear+0x5a>
    22c2:	84 00       	movi55 $r0,#0x0
    22c4:	d5 05       	j8 22ce <Timer_InterruptFlagClear+0x5a>
    22c6:	46 04 00 2b 	sethi $r0,#0x4002b
    22ca:	50 00 08 00 	addi $r0,$r0,#0x800
    22ce:	c0 27       	beqz38 $r0,231c <Timer_InterruptFlagClear+0xa8>
    22d0:	5a 10 02 1a 	beqc $r1,#0x2,2304 <Timer_InterruptFlagClear+0x90>
    22d4:	e6 23       	slti45 $r1,#0x3
    22d6:	e8 04       	beqzs8 22de <Timer_InterruptFlagClear+0x6a>
    22d8:	5a 10 01 0a 	beqc $r1,#0x1,22ec <Timer_InterruptFlagClear+0x78>
    22dc:	d5 23       	j8 2322 <Timer_InterruptFlagClear+0xae>
    22de:	5a 10 40 0d 	beqc $r1,#0x40,22f8 <Timer_InterruptFlagClear+0x84>
    22e2:	44 20 04 00 	movi $r2,#0x400
    22e6:	4c 11 00 15 	beq $r1,$r2,2310 <Timer_InterruptFlagClear+0x9c>
    22ea:	d5 1c       	j8 2322 <Timer_InterruptFlagClear+0xae>
    22ec:	b4 20       	lwi450 $r1,[$r0]
    22ee:	58 10 a0 00 	ori $r1,$r1,#0x2000
    22f2:	b6 20       	swi450 $r1,[$r0]
    22f4:	84 00       	movi55 $r0,#0x0
    22f6:	dd 9e       	ret5 $lp
    22f8:	b4 20       	lwi450 $r1,[$r0]
    22fa:	42 10 d0 08 	bset $r1,$r1,#0x14
    22fe:	b6 20       	swi450 $r1,[$r0]
    2300:	84 00       	movi55 $r0,#0x0
    2302:	dd 9e       	ret5 $lp
    2304:	b4 20       	lwi450 $r1,[$r0]
    2306:	42 10 bc 08 	bset $r1,$r1,#0xf
    230a:	b6 20       	swi450 $r1,[$r0]
    230c:	84 00       	movi55 $r0,#0x0
    230e:	dd 9e       	ret5 $lp
    2310:	b4 20       	lwi450 $r1,[$r0]
    2312:	42 10 c0 08 	bset $r1,$r1,#0x10
    2316:	b6 20       	swi450 $r1,[$r0]
    2318:	84 00       	movi55 $r0,#0x0
    231a:	dd 9e       	ret5 $lp
    231c:	44 0f ff 80 	movi $r0,#-128
    2320:	dd 9e       	ret5 $lp
    2322:	84 00       	movi55 $r0,#0x0
    2324:	dd 9e       	ret5 $lp
    2326:	92 00       	nop16

Disassembly of section .driver.isr:

00002328 <SystickInterrupt>:
    2328:	3a 6f 98 bc 	smw.adm $r6,[$sp],$r6,#0x2    ! {$r6, $lp}
    232c:	49 00 47 f8 	jal b31c <SysTimerIntFlagClear>
    2330:	3c 0c 0a b9 	lwi.gp $r0,[+#0x2ae4]
    2334:	8c 01       	addi45 $r0,#0x1
    2336:	3c 0e 0a b9 	swi.gp $r0,[+#0x2ae4]
    233a:	49 00 09 18 	jal 356a <ulPortSetInterruptMask>
    233e:	80 c0       	mov55 $r6,$r0
    2340:	49 00 0b 3f 	jal 39be <xTaskIncrementTick>
    2344:	5a 08 01 04 	bnec $r0,#0x1,234c <SystickInterrupt+0x24>
    2348:	49 00 08 de 	jal 3504 <vPortYield>
    234c:	80 06       	mov55 $r0,$r6
    234e:	49 00 09 18 	jal 357e <vPortClearInterruptMask>
    2352:	3a 6f 98 84 	lmw.bim $r6,[$sp],$r6,#0x2    ! {$r6, $lp}
    2356:	dd 9e       	ret5 $lp

00002358 <DMA0_Interrupt>:
    2358:	3a 6f 98 bc 	smw.adm $r6,[$sp],$r6,#0x2    ! {$r6, $lp}
    235c:	46 04 00 0d 	sethi $r0,#0x4000d
    2360:	b4 00       	lwi450 $r0,[$r0]
    2362:	42 00 48 0b 	btst $r0,$r0,#0x12
    2366:	c0 0a       	beqz38 $r0,237a <DMA0_Interrupt+0x22>
    2368:	46 04 00 0d 	sethi $r0,#0x4000d
    236c:	a0 07       	lwi333 $r0,[$r0+#0x1c]
    236e:	96 04       	xlsb33 $r0,$r0
    2370:	c0 05       	beqz38 $r0,237a <DMA0_Interrupt+0x22>
    2372:	3c 0d ea ab 	lwi.gp $r0,[+#-21844]
    2376:	c0 02       	beqz38 $r0,237a <DMA0_Interrupt+0x22>
    2378:	dd 20       	jral5 $r0
    237a:	46 04 00 0d 	sethi $r0,#0x4000d
    237e:	b4 00       	lwi450 $r0,[$r0]
    2380:	42 00 4c 0b 	btst $r0,$r0,#0x13
    2384:	c0 17       	beqz38 $r0,23b2 <DMA0_Interrupt+0x5a>
    2386:	46 04 00 0d 	sethi $r0,#0x4000d
    238a:	a0 07       	lwi333 $r0,[$r0+#0x1c]
    238c:	42 00 04 0b 	btst $r0,$r0,#0x1
    2390:	c0 11       	beqz38 $r0,23b2 <DMA0_Interrupt+0x5a>
    2392:	3c 0d ea a3 	lwi.gp $r0,[+#-21876]
    2396:	c0 0e       	beqz38 $r0,23b2 <DMA0_Interrupt+0x5a>
    2398:	46 64 00 0d 	sethi $r6,#0x4000d
    239c:	b4 06       	lwi450 $r0,[$r6]
    239e:	42 00 4c 09 	bclr $r0,$r0,#0x13
    23a2:	b6 06       	swi450 $r0,[$r6]
    23a4:	3c 0d ea a3 	lwi.gp $r0,[+#-21876]
    23a8:	dd 20       	jral5 $r0
    23aa:	b4 06       	lwi450 $r0,[$r6]
    23ac:	42 00 4c 08 	bset $r0,$r0,#0x13
    23b0:	b6 06       	swi450 $r0,[$r6]
    23b2:	46 04 00 0d 	sethi $r0,#0x4000d
    23b6:	b4 00       	lwi450 $r0,[$r0]
    23b8:	42 00 50 0b 	btst $r0,$r0,#0x14
    23bc:	c0 0b       	beqz38 $r0,23d2 <DMA0_Interrupt+0x7a>
    23be:	46 04 00 0d 	sethi $r0,#0x4000d
    23c2:	a0 07       	lwi333 $r0,[$r0+#0x1c]
    23c4:	42 00 08 0b 	btst $r0,$r0,#0x2
    23c8:	c0 05       	beqz38 $r0,23d2 <DMA0_Interrupt+0x7a>
    23ca:	3c 0d ea 9b 	lwi.gp $r0,[+#-21908]
    23ce:	c0 02       	beqz38 $r0,23d2 <DMA0_Interrupt+0x7a>
    23d0:	dd 20       	jral5 $r0
    23d2:	3a 6f 98 84 	lmw.bim $r6,[$sp],$r6,#0x2    ! {$r6, $lp}
    23d6:	dd 9e       	ret5 $lp

000023d8 <DMA1_Interrupt>:
    23d8:	3a 6f 98 bc 	smw.adm $r6,[$sp],$r6,#0x2    ! {$r6, $lp}
    23dc:	46 04 00 0d 	sethi $r0,#0x4000d
    23e0:	04 00 00 08 	lwi $r0,[$r0+#0x20]
    23e4:	42 00 48 0b 	btst $r0,$r0,#0x12
    23e8:	c0 0c       	beqz38 $r0,2400 <DMA1_Interrupt+0x28>
    23ea:	46 04 00 0d 	sethi $r0,#0x4000d
    23ee:	50 00 00 20 	addi $r0,$r0,#0x20
    23f2:	a0 07       	lwi333 $r0,[$r0+#0x1c]
    23f4:	96 04       	xlsb33 $r0,$r0
    23f6:	c0 05       	beqz38 $r0,2400 <DMA1_Interrupt+0x28>
    23f8:	3c 0d ea ac 	lwi.gp $r0,[+#-21840]
    23fc:	c0 02       	beqz38 $r0,2400 <DMA1_Interrupt+0x28>
    23fe:	dd 20       	jral5 $r0
    2400:	46 04 00 0d 	sethi $r0,#0x4000d
    2404:	04 00 00 08 	lwi $r0,[$r0+#0x20]
    2408:	42 00 4c 0b 	btst $r0,$r0,#0x13
    240c:	c0 1d       	beqz38 $r0,2446 <DMA1_Interrupt+0x6e>
    240e:	46 04 00 0d 	sethi $r0,#0x4000d
    2412:	50 00 00 20 	addi $r0,$r0,#0x20
    2416:	a0 07       	lwi333 $r0,[$r0+#0x1c]
    2418:	42 00 04 0b 	btst $r0,$r0,#0x1
    241c:	c0 15       	beqz38 $r0,2446 <DMA1_Interrupt+0x6e>
    241e:	3c 0d ea a4 	lwi.gp $r0,[+#-21872]
    2422:	c0 12       	beqz38 $r0,2446 <DMA1_Interrupt+0x6e>
    2424:	46 64 00 0d 	sethi $r6,#0x4000d
    2428:	04 03 00 08 	lwi $r0,[$r6+#0x20]
    242c:	42 00 4c 09 	bclr $r0,$r0,#0x13
    2430:	14 03 00 08 	swi $r0,[$r6+#0x20]
    2434:	3c 0d ea a4 	lwi.gp $r0,[+#-21872]
    2438:	dd 20       	jral5 $r0
    243a:	04 03 00 08 	lwi $r0,[$r6+#0x20]
    243e:	42 00 4c 08 	bset $r0,$r0,#0x13
    2442:	14 03 00 08 	swi $r0,[$r6+#0x20]
    2446:	46 04 00 0d 	sethi $r0,#0x4000d
    244a:	04 00 00 08 	lwi $r0,[$r0+#0x20]
    244e:	42 00 50 0b 	btst $r0,$r0,#0x14
    2452:	c0 0d       	beqz38 $r0,246c <DMA1_Interrupt+0x94>
    2454:	46 04 00 0d 	sethi $r0,#0x4000d
    2458:	50 00 00 20 	addi $r0,$r0,#0x20
    245c:	a0 07       	lwi333 $r0,[$r0+#0x1c]
    245e:	42 00 08 0b 	btst $r0,$r0,#0x2
    2462:	c0 05       	beqz38 $r0,246c <DMA1_Interrupt+0x94>
    2464:	3c 0d ea 9c 	lwi.gp $r0,[+#-21904]
    2468:	c0 02       	beqz38 $r0,246c <DMA1_Interrupt+0x94>
    246a:	dd 20       	jral5 $r0
    246c:	3a 6f 98 84 	lmw.bim $r6,[$sp],$r6,#0x2    ! {$r6, $lp}
    2470:	dd 9e       	ret5 $lp

00002472 <DMA2_Interrupt>:
    2472:	3a 6f 98 bc 	smw.adm $r6,[$sp],$r6,#0x2    ! {$r6, $lp}
    2476:	46 04 00 0d 	sethi $r0,#0x4000d
    247a:	04 00 00 10 	lwi $r0,[$r0+#0x40]
    247e:	42 00 48 0b 	btst $r0,$r0,#0x12
    2482:	c0 0c       	beqz38 $r0,249a <DMA2_Interrupt+0x28>
    2484:	46 04 00 0d 	sethi $r0,#0x4000d
    2488:	50 00 00 40 	addi $r0,$r0,#0x40
    248c:	a0 07       	lwi333 $r0,[$r0+#0x1c]
    248e:	96 04       	xlsb33 $r0,$r0
    2490:	c0 05       	beqz38 $r0,249a <DMA2_Interrupt+0x28>
    2492:	3c 0d ea ad 	lwi.gp $r0,[+#-21836]
    2496:	c0 02       	beqz38 $r0,249a <DMA2_Interrupt+0x28>
    2498:	dd 20       	jral5 $r0
    249a:	46 04 00 0d 	sethi $r0,#0x4000d
    249e:	04 00 00 10 	lwi $r0,[$r0+#0x40]
    24a2:	42 00 4c 0b 	btst $r0,$r0,#0x13
    24a6:	c0 1d       	beqz38 $r0,24e0 <DMA2_Interrupt+0x6e>
    24a8:	46 04 00 0d 	sethi $r0,#0x4000d
    24ac:	50 00 00 40 	addi $r0,$r0,#0x40
    24b0:	a0 07       	lwi333 $r0,[$r0+#0x1c]
    24b2:	42 00 04 0b 	btst $r0,$r0,#0x1
    24b6:	c0 15       	beqz38 $r0,24e0 <DMA2_Interrupt+0x6e>
    24b8:	3c 0d ea a5 	lwi.gp $r0,[+#-21868]
    24bc:	c0 12       	beqz38 $r0,24e0 <DMA2_Interrupt+0x6e>
    24be:	46 64 00 0d 	sethi $r6,#0x4000d
    24c2:	04 03 00 10 	lwi $r0,[$r6+#0x40]
    24c6:	42 00 4c 09 	bclr $r0,$r0,#0x13
    24ca:	14 03 00 10 	swi $r0,[$r6+#0x40]
    24ce:	3c 0d ea a5 	lwi.gp $r0,[+#-21868]
    24d2:	dd 20       	jral5 $r0
    24d4:	04 03 00 10 	lwi $r0,[$r6+#0x40]
    24d8:	42 00 4c 08 	bset $r0,$r0,#0x13
    24dc:	14 03 00 10 	swi $r0,[$r6+#0x40]
    24e0:	46 04 00 0d 	sethi $r0,#0x4000d
    24e4:	04 00 00 10 	lwi $r0,[$r0+#0x40]
    24e8:	42 00 50 0b 	btst $r0,$r0,#0x14
    24ec:	c0 0d       	beqz38 $r0,2506 <DMA2_Interrupt+0x94>
    24ee:	46 04 00 0d 	sethi $r0,#0x4000d
    24f2:	50 00 00 40 	addi $r0,$r0,#0x40
    24f6:	a0 07       	lwi333 $r0,[$r0+#0x1c]
    24f8:	42 00 08 0b 	btst $r0,$r0,#0x2
    24fc:	c0 05       	beqz38 $r0,2506 <DMA2_Interrupt+0x94>
    24fe:	3c 0d ea 9d 	lwi.gp $r0,[+#-21900]
    2502:	c0 02       	beqz38 $r0,2506 <DMA2_Interrupt+0x94>
    2504:	dd 20       	jral5 $r0
    2506:	3a 6f 98 84 	lmw.bim $r6,[$sp],$r6,#0x2    ! {$r6, $lp}
    250a:	dd 9e       	ret5 $lp

0000250c <DMA3_Interrupt>:
    250c:	3a 6f 98 bc 	smw.adm $r6,[$sp],$r6,#0x2    ! {$r6, $lp}
    2510:	46 04 00 0d 	sethi $r0,#0x4000d
    2514:	04 00 00 18 	lwi $r0,[$r0+#0x60]
    2518:	42 00 48 0b 	btst $r0,$r0,#0x12
    251c:	c0 0c       	beqz38 $r0,2534 <DMA3_Interrupt+0x28>
    251e:	46 04 00 0d 	sethi $r0,#0x4000d
    2522:	50 00 00 60 	addi $r0,$r0,#0x60
    2526:	a0 07       	lwi333 $r0,[$r0+#0x1c]
    2528:	96 04       	xlsb33 $r0,$r0
    252a:	c0 05       	beqz38 $r0,2534 <DMA3_Interrupt+0x28>
    252c:	3c 0d ea ae 	lwi.gp $r0,[+#-21832]
    2530:	c0 02       	beqz38 $r0,2534 <DMA3_Interrupt+0x28>
    2532:	dd 20       	jral5 $r0
    2534:	46 04 00 0d 	sethi $r0,#0x4000d
    2538:	04 00 00 18 	lwi $r0,[$r0+#0x60]
    253c:	42 00 4c 0b 	btst $r0,$r0,#0x13
    2540:	c0 1d       	beqz38 $r0,257a <DMA3_Interrupt+0x6e>
    2542:	46 04 00 0d 	sethi $r0,#0x4000d
    2546:	50 00 00 60 	addi $r0,$r0,#0x60
    254a:	a0 07       	lwi333 $r0,[$r0+#0x1c]
    254c:	42 00 04 0b 	btst $r0,$r0,#0x1
    2550:	c0 15       	beqz38 $r0,257a <DMA3_Interrupt+0x6e>
    2552:	3c 0d ea a6 	lwi.gp $r0,[+#-21864]
    2556:	c0 12       	beqz38 $r0,257a <DMA3_Interrupt+0x6e>
    2558:	46 64 00 0d 	sethi $r6,#0x4000d
    255c:	04 03 00 18 	lwi $r0,[$r6+#0x60]
    2560:	42 00 4c 09 	bclr $r0,$r0,#0x13
    2564:	14 03 00 18 	swi $r0,[$r6+#0x60]
    2568:	3c 0d ea a6 	lwi.gp $r0,[+#-21864]
    256c:	dd 20       	jral5 $r0
    256e:	04 03 00 18 	lwi $r0,[$r6+#0x60]
    2572:	42 00 4c 08 	bset $r0,$r0,#0x13
    2576:	14 03 00 18 	swi $r0,[$r6+#0x60]
    257a:	46 04 00 0d 	sethi $r0,#0x4000d
    257e:	04 00 00 18 	lwi $r0,[$r0+#0x60]
    2582:	42 00 50 0b 	btst $r0,$r0,#0x14
    2586:	c0 0d       	beqz38 $r0,25a0 <DMA3_Interrupt+0x94>
    2588:	46 04 00 0d 	sethi $r0,#0x4000d
    258c:	50 00 00 60 	addi $r0,$r0,#0x60
    2590:	a0 07       	lwi333 $r0,[$r0+#0x1c]
    2592:	42 00 08 0b 	btst $r0,$r0,#0x2
    2596:	c0 05       	beqz38 $r0,25a0 <DMA3_Interrupt+0x94>
    2598:	3c 0d ea 9e 	lwi.gp $r0,[+#-21896]
    259c:	c0 02       	beqz38 $r0,25a0 <DMA3_Interrupt+0x94>
    259e:	dd 20       	jral5 $r0
    25a0:	3a 6f 98 84 	lmw.bim $r6,[$sp],$r6,#0x2    ! {$r6, $lp}
    25a4:	dd 9e       	ret5 $lp

000025a6 <DMA4_Interrupt>:
    25a6:	3a 6f 98 bc 	smw.adm $r6,[$sp],$r6,#0x2    ! {$r6, $lp}
    25aa:	46 04 00 0d 	sethi $r0,#0x4000d
    25ae:	04 00 00 20 	lwi $r0,[$r0+#0x80]
    25b2:	42 00 48 0b 	btst $r0,$r0,#0x12
    25b6:	c0 0c       	beqz38 $r0,25ce <DMA4_Interrupt+0x28>
    25b8:	46 04 00 0d 	sethi $r0,#0x4000d
    25bc:	50 00 00 80 	addi $r0,$r0,#0x80
    25c0:	a0 07       	lwi333 $r0,[$r0+#0x1c]
    25c2:	96 04       	xlsb33 $r0,$r0
    25c4:	c0 05       	beqz38 $r0,25ce <DMA4_Interrupt+0x28>
    25c6:	3c 0d ea af 	lwi.gp $r0,[+#-21828]
    25ca:	c0 02       	beqz38 $r0,25ce <DMA4_Interrupt+0x28>
    25cc:	dd 20       	jral5 $r0
    25ce:	46 04 00 0d 	sethi $r0,#0x4000d
    25d2:	04 00 00 20 	lwi $r0,[$r0+#0x80]
    25d6:	42 00 4c 0b 	btst $r0,$r0,#0x13
    25da:	c0 1d       	beqz38 $r0,2614 <DMA4_Interrupt+0x6e>
    25dc:	46 04 00 0d 	sethi $r0,#0x4000d
    25e0:	50 00 00 80 	addi $r0,$r0,#0x80
    25e4:	a0 07       	lwi333 $r0,[$r0+#0x1c]
    25e6:	42 00 04 0b 	btst $r0,$r0,#0x1
    25ea:	c0 15       	beqz38 $r0,2614 <DMA4_Interrupt+0x6e>
    25ec:	3c 0d ea a7 	lwi.gp $r0,[+#-21860]
    25f0:	c0 12       	beqz38 $r0,2614 <DMA4_Interrupt+0x6e>
    25f2:	46 64 00 0d 	sethi $r6,#0x4000d
    25f6:	04 03 00 20 	lwi $r0,[$r6+#0x80]
    25fa:	42 00 4c 09 	bclr $r0,$r0,#0x13
    25fe:	14 03 00 20 	swi $r0,[$r6+#0x80]
    2602:	3c 0d ea a7 	lwi.gp $r0,[+#-21860]
    2606:	dd 20       	jral5 $r0
    2608:	04 03 00 20 	lwi $r0,[$r6+#0x80]
    260c:	42 00 4c 08 	bset $r0,$r0,#0x13
    2610:	14 03 00 20 	swi $r0,[$r6+#0x80]
    2614:	46 04 00 0d 	sethi $r0,#0x4000d
    2618:	04 00 00 20 	lwi $r0,[$r0+#0x80]
    261c:	42 00 50 0b 	btst $r0,$r0,#0x14
    2620:	c0 0d       	beqz38 $r0,263a <DMA4_Interrupt+0x94>
    2622:	46 04 00 0d 	sethi $r0,#0x4000d
    2626:	50 00 00 80 	addi $r0,$r0,#0x80
    262a:	a0 07       	lwi333 $r0,[$r0+#0x1c]
    262c:	42 00 08 0b 	btst $r0,$r0,#0x2
    2630:	c0 05       	beqz38 $r0,263a <DMA4_Interrupt+0x94>
    2632:	3c 0d ea 9f 	lwi.gp $r0,[+#-21892]
    2636:	c0 02       	beqz38 $r0,263a <DMA4_Interrupt+0x94>
    2638:	dd 20       	jral5 $r0
    263a:	3a 6f 98 84 	lmw.bim $r6,[$sp],$r6,#0x2    ! {$r6, $lp}
    263e:	dd 9e       	ret5 $lp

00002640 <DMA5_Interrupt>:
    2640:	3a 6f 98 bc 	smw.adm $r6,[$sp],$r6,#0x2    ! {$r6, $lp}
    2644:	46 04 00 0d 	sethi $r0,#0x4000d
    2648:	04 00 00 28 	lwi $r0,[$r0+#0xa0]
    264c:	42 00 48 0b 	btst $r0,$r0,#0x12
    2650:	c0 0c       	beqz38 $r0,2668 <DMA5_Interrupt+0x28>
    2652:	46 04 00 0d 	sethi $r0,#0x4000d
    2656:	50 00 00 a0 	addi $r0,$r0,#0xa0
    265a:	a0 07       	lwi333 $r0,[$r0+#0x1c]
    265c:	96 04       	xlsb33 $r0,$r0
    265e:	c0 05       	beqz38 $r0,2668 <DMA5_Interrupt+0x28>
    2660:	3c 0d ea b0 	lwi.gp $r0,[+#-21824]
    2664:	c0 02       	beqz38 $r0,2668 <DMA5_Interrupt+0x28>
    2666:	dd 20       	jral5 $r0
    2668:	46 04 00 0d 	sethi $r0,#0x4000d
    266c:	04 00 00 28 	lwi $r0,[$r0+#0xa0]
    2670:	42 00 4c 0b 	btst $r0,$r0,#0x13
    2674:	c0 1d       	beqz38 $r0,26ae <DMA5_Interrupt+0x6e>
    2676:	46 04 00 0d 	sethi $r0,#0x4000d
    267a:	50 00 00 a0 	addi $r0,$r0,#0xa0
    267e:	a0 07       	lwi333 $r0,[$r0+#0x1c]
    2680:	42 00 04 0b 	btst $r0,$r0,#0x1
    2684:	c0 15       	beqz38 $r0,26ae <DMA5_Interrupt+0x6e>
    2686:	3c 0d ea a8 	lwi.gp $r0,[+#-21856]
    268a:	c0 12       	beqz38 $r0,26ae <DMA5_Interrupt+0x6e>
    268c:	46 64 00 0d 	sethi $r6,#0x4000d
    2690:	04 03 00 28 	lwi $r0,[$r6+#0xa0]
    2694:	42 00 4c 09 	bclr $r0,$r0,#0x13
    2698:	14 03 00 28 	swi $r0,[$r6+#0xa0]
    269c:	3c 0d ea a8 	lwi.gp $r0,[+#-21856]
    26a0:	dd 20       	jral5 $r0
    26a2:	04 03 00 28 	lwi $r0,[$r6+#0xa0]
    26a6:	42 00 4c 08 	bset $r0,$r0,#0x13
    26aa:	14 03 00 28 	swi $r0,[$r6+#0xa0]
    26ae:	46 04 00 0d 	sethi $r0,#0x4000d
    26b2:	04 00 00 28 	lwi $r0,[$r0+#0xa0]
    26b6:	42 00 50 0b 	btst $r0,$r0,#0x14
    26ba:	c0 0d       	beqz38 $r0,26d4 <DMA5_Interrupt+0x94>
    26bc:	46 04 00 0d 	sethi $r0,#0x4000d
    26c0:	50 00 00 a0 	addi $r0,$r0,#0xa0
    26c4:	a0 07       	lwi333 $r0,[$r0+#0x1c]
    26c6:	42 00 08 0b 	btst $r0,$r0,#0x2
    26ca:	c0 05       	beqz38 $r0,26d4 <DMA5_Interrupt+0x94>
    26cc:	3c 0d ea a0 	lwi.gp $r0,[+#-21888]
    26d0:	c0 02       	beqz38 $r0,26d4 <DMA5_Interrupt+0x94>
    26d2:	dd 20       	jral5 $r0
    26d4:	3a 6f 98 84 	lmw.bim $r6,[$sp],$r6,#0x2    ! {$r6, $lp}
    26d8:	dd 9e       	ret5 $lp

000026da <DMA6_Interrupt>:
    26da:	3a 6f 98 bc 	smw.adm $r6,[$sp],$r6,#0x2    ! {$r6, $lp}
    26de:	46 04 00 0d 	sethi $r0,#0x4000d
    26e2:	04 00 00 30 	lwi $r0,[$r0+#0xc0]
    26e6:	42 00 48 0b 	btst $r0,$r0,#0x12
    26ea:	c0 0c       	beqz38 $r0,2702 <DMA6_Interrupt+0x28>
    26ec:	46 04 00 0d 	sethi $r0,#0x4000d
    26f0:	50 00 00 c0 	addi $r0,$r0,#0xc0
    26f4:	a0 07       	lwi333 $r0,[$r0+#0x1c]
    26f6:	96 04       	xlsb33 $r0,$r0
    26f8:	c0 05       	beqz38 $r0,2702 <DMA6_Interrupt+0x28>
    26fa:	3c 0d ea b1 	lwi.gp $r0,[+#-21820]
    26fe:	c0 02       	beqz38 $r0,2702 <DMA6_Interrupt+0x28>
    2700:	dd 20       	jral5 $r0
    2702:	46 04 00 0d 	sethi $r0,#0x4000d
    2706:	04 00 00 30 	lwi $r0,[$r0+#0xc0]
    270a:	42 00 4c 0b 	btst $r0,$r0,#0x13
    270e:	c0 1d       	beqz38 $r0,2748 <DMA6_Interrupt+0x6e>
    2710:	46 04 00 0d 	sethi $r0,#0x4000d
    2714:	50 00 00 c0 	addi $r0,$r0,#0xc0
    2718:	a0 07       	lwi333 $r0,[$r0+#0x1c]
    271a:	42 00 04 0b 	btst $r0,$r0,#0x1
    271e:	c0 15       	beqz38 $r0,2748 <DMA6_Interrupt+0x6e>
    2720:	3c 0d ea a9 	lwi.gp $r0,[+#-21852]
    2724:	c0 12       	beqz38 $r0,2748 <DMA6_Interrupt+0x6e>
    2726:	46 64 00 0d 	sethi $r6,#0x4000d
    272a:	04 03 00 30 	lwi $r0,[$r6+#0xc0]
    272e:	42 00 4c 09 	bclr $r0,$r0,#0x13
    2732:	14 03 00 30 	swi $r0,[$r6+#0xc0]
    2736:	3c 0d ea a9 	lwi.gp $r0,[+#-21852]
    273a:	dd 20       	jral5 $r0
    273c:	04 03 00 30 	lwi $r0,[$r6+#0xc0]
    2740:	42 00 4c 08 	bset $r0,$r0,#0x13
    2744:	14 03 00 30 	swi $r0,[$r6+#0xc0]
    2748:	46 04 00 0d 	sethi $r0,#0x4000d
    274c:	04 00 00 30 	lwi $r0,[$r0+#0xc0]
    2750:	42 00 50 0b 	btst $r0,$r0,#0x14
    2754:	c0 0d       	beqz38 $r0,276e <DMA6_Interrupt+0x94>
    2756:	46 04 00 0d 	sethi $r0,#0x4000d
    275a:	50 00 00 c0 	addi $r0,$r0,#0xc0
    275e:	a0 07       	lwi333 $r0,[$r0+#0x1c]
    2760:	42 00 08 0b 	btst $r0,$r0,#0x2
    2764:	c0 05       	beqz38 $r0,276e <DMA6_Interrupt+0x94>
    2766:	3c 0d ea a1 	lwi.gp $r0,[+#-21884]
    276a:	c0 02       	beqz38 $r0,276e <DMA6_Interrupt+0x94>
    276c:	dd 20       	jral5 $r0
    276e:	3a 6f 98 84 	lmw.bim $r6,[$sp],$r6,#0x2    ! {$r6, $lp}
    2772:	dd 9e       	ret5 $lp

00002774 <DMA7_Interrupt>:
    2774:	3a 6f 98 bc 	smw.adm $r6,[$sp],$r6,#0x2    ! {$r6, $lp}
    2778:	46 04 00 0d 	sethi $r0,#0x4000d
    277c:	04 00 00 38 	lwi $r0,[$r0+#0xe0]
    2780:	42 00 48 0b 	btst $r0,$r0,#0x12
    2784:	c0 0c       	beqz38 $r0,279c <DMA7_Interrupt+0x28>
    2786:	46 04 00 0d 	sethi $r0,#0x4000d
    278a:	50 00 00 e0 	addi $r0,$r0,#0xe0
    278e:	a0 07       	lwi333 $r0,[$r0+#0x1c]
    2790:	96 04       	xlsb33 $r0,$r0
    2792:	c0 05       	beqz38 $r0,279c <DMA7_Interrupt+0x28>
    2794:	3c 0d ea b2 	lwi.gp $r0,[+#-21816]
    2798:	c0 02       	beqz38 $r0,279c <DMA7_Interrupt+0x28>
    279a:	dd 20       	jral5 $r0
    279c:	46 04 00 0d 	sethi $r0,#0x4000d
    27a0:	04 00 00 38 	lwi $r0,[$r0+#0xe0]
    27a4:	42 00 4c 0b 	btst $r0,$r0,#0x13
    27a8:	c0 1d       	beqz38 $r0,27e2 <DMA7_Interrupt+0x6e>
    27aa:	46 04 00 0d 	sethi $r0,#0x4000d
    27ae:	50 00 00 e0 	addi $r0,$r0,#0xe0
    27b2:	a0 07       	lwi333 $r0,[$r0+#0x1c]
    27b4:	42 00 04 0b 	btst $r0,$r0,#0x1
    27b8:	c0 15       	beqz38 $r0,27e2 <DMA7_Interrupt+0x6e>
    27ba:	3c 0d ea aa 	lwi.gp $r0,[+#-21848]
    27be:	c0 12       	beqz38 $r0,27e2 <DMA7_Interrupt+0x6e>
    27c0:	46 64 00 0d 	sethi $r6,#0x4000d
    27c4:	04 03 00 38 	lwi $r0,[$r6+#0xe0]
    27c8:	42 00 4c 09 	bclr $r0,$r0,#0x13
    27cc:	14 03 00 38 	swi $r0,[$r6+#0xe0]
    27d0:	3c 0d ea aa 	lwi.gp $r0,[+#-21848]
    27d4:	dd 20       	jral5 $r0
    27d6:	04 03 00 38 	lwi $r0,[$r6+#0xe0]
    27da:	42 00 4c 08 	bset $r0,$r0,#0x13
    27de:	14 03 00 38 	swi $r0,[$r6+#0xe0]
    27e2:	46 04 00 0d 	sethi $r0,#0x4000d
    27e6:	04 00 00 38 	lwi $r0,[$r0+#0xe0]
    27ea:	42 00 50 0b 	btst $r0,$r0,#0x14
    27ee:	c0 0d       	beqz38 $r0,2808 <DMA7_Interrupt+0x94>
    27f0:	46 04 00 0d 	sethi $r0,#0x4000d
    27f4:	50 00 00 e0 	addi $r0,$r0,#0xe0
    27f8:	a0 07       	lwi333 $r0,[$r0+#0x1c]
    27fa:	42 00 08 0b 	btst $r0,$r0,#0x2
    27fe:	c0 05       	beqz38 $r0,2808 <DMA7_Interrupt+0x94>
    2800:	3c 0d ea a2 	lwi.gp $r0,[+#-21880]
    2804:	c0 02       	beqz38 $r0,2808 <DMA7_Interrupt+0x94>
    2806:	dd 20       	jral5 $r0
    2808:	3a 6f 98 84 	lmw.bim $r6,[$sp],$r6,#0x2    ! {$r6, $lp}
    280c:	dd 9e       	ret5 $lp

0000280e <GetSysTick1MsCnt>:
    280e:	3c 0c 0a b9 	lwi.gp $r0,[+#0x2ae4]
    2812:	dd 9e       	ret5 $lp

00002814 <PastTimeGet>:
    2814:	3a 6f 98 bc 	smw.adm $r6,[$sp],$r6,#0x2    ! {$r6, $lp}
    2818:	80 c0       	mov55 $r6,$r0
    281a:	49 ff ff fa 	jal 280e <GetSysTick1MsCnt>
    281e:	a0 71       	lwi333 $r1,[$r6+#0x4]
    2820:	8a 01       	sub45 $r0,$r1
    2822:	3a 6f 98 84 	lmw.bim $r6,[$sp],$r6,#0x2    ! {$r6, $lp}
    2826:	dd 9e       	ret5 $lp

00002828 <TimeOutSet>:
    2828:	3a 6f a0 bc 	smw.adm $r6,[$sp],$r8,#0x2    ! {$r6~$r8, $lp}
    282c:	fd 30       	movd44 $r6,$r0
    282e:	49 ff ff f0 	jal 280e <GetSysTick1MsCnt>
    2832:	a8 31       	swi333 $r0,[$r6+#0x4]
    2834:	49 ff ff ed 	jal 280e <GetSysTick1MsCnt>
    2838:	88 07       	add45 $r0,$r7
    283a:	b6 06       	swi450 $r0,[$r6]
    283c:	84 00       	movi55 $r0,#0x0
    283e:	10 03 00 08 	sbi $r0,[$r6+#0x8]
    2842:	3a 6f a0 84 	lmw.bim $r6,[$sp],$r8,#0x2    ! {$r6~$r8, $lp}
    2846:	dd 9e       	ret5 $lp

00002848 <IsTimeOut>:
    2848:	3a 6f a0 bc 	smw.adm $r6,[$sp],$r8,#0x2    ! {$r6~$r8, $lp}
    284c:	00 60 00 08 	lbi $r6,[$r0+#0x8]
    2850:	ce 0f       	bnez38 $r6,286e <IsTimeOut+0x26>
    2852:	80 e0       	mov55 $r7,$r0
    2854:	49 ff ff dd 	jal 280e <GetSysTick1MsCnt>
    2858:	b4 27       	lwi450 $r1,[$r7]
    285a:	40 00 80 06 	slt $r0,$r1,$r0
    285e:	c0 05       	beqz38 $r0,2868 <IsTimeOut+0x20>
    2860:	84 01       	movi55 $r0,#0x1
    2862:	10 03 80 08 	sbi $r0,[$r7+#0x8]
    2866:	d5 05       	j8 2870 <IsTimeOut+0x28>
    2868:	00 63 80 08 	lbi $r6,[$r7+#0x8]
    286c:	d5 02       	j8 2870 <IsTimeOut+0x28>
    286e:	84 c1       	movi55 $r6,#0x1
    2870:	80 06       	mov55 $r0,$r6
    2872:	3a 6f a0 84 	lmw.bim $r6,[$sp],$r8,#0x2    ! {$r6~$r8, $lp}
    2876:	dd 9e       	ret5 $lp
    2878:	46 04 00 05 	sethi $r0,#0x40005
    287c:	a0 03       	lwi333 $r0,[$r0+#0xc]
    287e:	42 00 04 0b 	btst $r0,$r0,#0x1
    2882:	c0 0e       	beqz38 $r0,289e <IsTimeOut+0x56>
    2884:	46 04 00 05 	sethi $r0,#0x40005
    2888:	a0 05       	lwi333 $r0,[$r0+#0x14]
    288a:	96 04       	xlsb33 $r0,$r0
    288c:	c0 09       	beqz38 $r0,289e <IsTimeOut+0x56>
    288e:	46 14 00 05 	sethi $r1,#0x40005
    2892:	00 00 80 0c 	lbi $r0,[$r1+#0xc]
    2896:	58 00 00 04 	ori $r0,$r0,#0x4
    289a:	10 00 80 0c 	sbi $r0,[$r1+#0xc]
    289e:	46 04 00 05 	sethi $r0,#0x40005
    28a2:	a0 03       	lwi333 $r0,[$r0+#0xc]
    28a4:	42 00 0c 0b 	btst $r0,$r0,#0x3
    28a8:	c0 0f       	beqz38 $r0,28c6 <IsTimeOut+0x7e>
    28aa:	46 04 00 05 	sethi $r0,#0x40005
    28ae:	a0 05       	lwi333 $r0,[$r0+#0x14]
    28b0:	54 00 00 3c 	andi $r0,$r0,#0x3c
    28b4:	c0 09       	beqz38 $r0,28c6 <IsTimeOut+0x7e>
    28b6:	46 14 00 05 	sethi $r1,#0x40005
    28ba:	00 00 80 0c 	lbi $r0,[$r1+#0xc]
    28be:	58 00 00 10 	ori $r0,$r0,#0x10
    28c2:	10 00 80 0c 	sbi $r0,[$r1+#0xc]
    28c6:	46 04 00 05 	sethi $r0,#0x40005
    28ca:	a0 05       	lwi333 $r0,[$r0+#0x14]
    28cc:	42 00 20 0b 	btst $r0,$r0,#0x8
    28d0:	c0 09       	beqz38 $r0,28e2 <IsTimeOut+0x9a>
    28d2:	46 14 00 05 	sethi $r1,#0x40005
    28d6:	00 00 80 1c 	lbi $r0,[$r1+#0x1c]
    28da:	58 00 00 04 	ori $r0,$r0,#0x4
    28de:	10 00 80 1c 	sbi $r0,[$r1+#0x1c]
    28e2:	46 04 00 05 	sethi $r0,#0x40005
    28e6:	a0 05       	lwi333 $r0,[$r0+#0x14]
    28e8:	96 0e       	bmski33 $r0,#0x1
    28ea:	c0 09       	beqz38 $r0,28fc <IsTimeOut+0xb4>
    28ec:	46 14 00 05 	sethi $r1,#0x40005
    28f0:	00 00 80 0c 	lbi $r0,[$r1+#0xc]
    28f4:	58 00 00 40 	ori $r0,$r0,#0x40
    28f8:	10 00 80 0c 	sbi $r0,[$r1+#0xc]
    28fc:	dd 9e       	ret5 $lp

000028fe <UART1_Interrupt>:
    28fe:	46 04 00 06 	sethi $r0,#0x40006
    2902:	a0 03       	lwi333 $r0,[$r0+#0xc]
    2904:	42 00 04 0b 	btst $r0,$r0,#0x1
    2908:	c0 0e       	beqz38 $r0,2924 <UART1_Interrupt+0x26>
    290a:	46 04 00 06 	sethi $r0,#0x40006
    290e:	a0 05       	lwi333 $r0,[$r0+#0x14]
    2910:	96 04       	xlsb33 $r0,$r0
    2912:	c0 09       	beqz38 $r0,2924 <UART1_Interrupt+0x26>
    2914:	46 14 00 06 	sethi $r1,#0x40006
    2918:	00 00 80 0c 	lbi $r0,[$r1+#0xc]
    291c:	58 00 00 04 	ori $r0,$r0,#0x4
    2920:	10 00 80 0c 	sbi $r0,[$r1+#0xc]
    2924:	46 04 00 06 	sethi $r0,#0x40006
    2928:	a0 03       	lwi333 $r0,[$r0+#0xc]
    292a:	42 00 0c 0b 	btst $r0,$r0,#0x3
    292e:	c0 0f       	beqz38 $r0,294c <UART1_Interrupt+0x4e>
    2930:	46 04 00 06 	sethi $r0,#0x40006
    2934:	a0 05       	lwi333 $r0,[$r0+#0x14]
    2936:	54 00 00 3c 	andi $r0,$r0,#0x3c
    293a:	c0 09       	beqz38 $r0,294c <UART1_Interrupt+0x4e>
    293c:	46 14 00 06 	sethi $r1,#0x40006
    2940:	00 00 80 0c 	lbi $r0,[$r1+#0xc]
    2944:	58 00 00 10 	ori $r0,$r0,#0x10
    2948:	10 00 80 0c 	sbi $r0,[$r1+#0xc]
    294c:	46 04 00 06 	sethi $r0,#0x40006
    2950:	a0 05       	lwi333 $r0,[$r0+#0x14]
    2952:	42 00 20 0b 	btst $r0,$r0,#0x8
    2956:	c0 09       	beqz38 $r0,2968 <UART1_Interrupt+0x6a>
    2958:	46 14 00 06 	sethi $r1,#0x40006
    295c:	00 00 80 1c 	lbi $r0,[$r1+#0x1c]
    2960:	58 00 00 04 	ori $r0,$r0,#0x4
    2964:	10 00 80 1c 	sbi $r0,[$r1+#0x1c]
    2968:	46 04 00 06 	sethi $r0,#0x40006
    296c:	a0 05       	lwi333 $r0,[$r0+#0x14]
    296e:	96 0e       	bmski33 $r0,#0x1
    2970:	c0 09       	beqz38 $r0,2982 <UART1_Interrupt+0x84>
    2972:	46 14 00 06 	sethi $r1,#0x40006
    2976:	00 00 80 0c 	lbi $r0,[$r1+#0xc]
    297a:	58 00 00 40 	ori $r0,$r0,#0x40
    297e:	10 00 80 0c 	sbi $r0,[$r1+#0xc]
    2982:	dd 9e       	ret5 $lp

Disassembly of section .text:

00002984 <AudioADC_DigitalInit>:
    2984:	3a 6f a8 bc 	smw.adm $r6,[$sp],$r10,#0x2    ! {$r6~$r10, $lp}
    2988:	fd 30       	movd44 $r6,$r0
    298a:	81 22       	mov55 $r9,$r2
    298c:	81 03       	mov55 $r8,$r3
    298e:	84 02       	movi55 $r0,#0x2
    2990:	84 20       	movi55 $r1,#0x0
    2992:	46 20 0a c4 	sethi $r2,#0xac4
    2996:	50 21 04 00 	addi $r2,$r2,#0x400
    299a:	49 00 2f 23 	jal 87e0 <Clock_AudioPllClockSet>
    299e:	84 02       	movi55 $r0,#0x2
    29a0:	84 21       	movi55 $r1,#0x1
    29a2:	46 20 0b b8 	sethi $r2,#0xbb8
    29a6:	49 00 2f 1d 	jal 87e0 <Clock_AudioPllClockSet>
    29aa:	ce 63       	bnez38 $r6,2a70 <AudioADC_DigitalInit+0xec>
    29ac:	84 00       	movi55 $r0,#0x0
    29ae:	49 00 28 5c 	jal 7a66 <AudioADC_Disable>
    29b2:	fa 02       	movpi45 $r0,#0x12
    29b4:	84 20       	movi55 $r1,#0x0
    29b6:	49 00 35 f0 	jal 9596 <DMA_InterruptFlagClear>
    29ba:	fa 02       	movpi45 $r0,#0x12
    29bc:	84 21       	movi55 $r1,#0x1
    29be:	49 00 35 ec 	jal 9596 <DMA_InterruptFlagClear>
    29c2:	fa 02       	movpi45 $r0,#0x12
    29c4:	84 22       	movi55 $r1,#0x2
    29c6:	49 00 35 e8 	jal 9596 <DMA_InterruptFlagClear>
    29ca:	fa 02       	movpi45 $r0,#0x12
    29cc:	49 00 35 a4 	jal 9514 <DMA_ChannelDisable>
    29d0:	fa 02       	movpi45 $r0,#0x12
    29d2:	40 14 04 09 	srli $r1,$r8,#0x1
    29d6:	80 49       	mov55 $r2,$r9
    29d8:	80 68       	mov55 $r3,$r8
    29da:	49 00 37 71 	jal 98bc <DMA_CircularConfig>
    29de:	84 00       	movi55 $r0,#0x0
    29e0:	49 00 2c 2e 	jal 823c <AudioADC_IsOverflow>
    29e4:	c0 04       	beqz38 $r0,29ec <AudioADC_DigitalInit+0x68>
    29e6:	84 00       	movi55 $r0,#0x0
    29e8:	49 00 2c 36 	jal 8254 <AudioADC_OverflowClear>
    29ec:	84 00       	movi55 $r0,#0x0
    29ee:	49 00 28 86 	jal 7afa <AudioADC_Clear>
    29f2:	44 00 2b 11 	movi $r0,#0x2b11
    29f6:	4c 70 00 0a 	beq $r7,$r0,2a0a <AudioADC_DigitalInit+0x86>
    29fa:	44 00 56 22 	movi $r0,#0x5622
    29fe:	4c 70 00 06 	beq $r7,$r0,2a0a <AudioADC_DigitalInit+0x86>
    2a02:	44 00 ac 44 	movi $r0,#0xac44
    2a06:	4c 70 40 07 	bne $r7,$r0,2a14 <AudioADC_DigitalInit+0x90>
    2a0a:	84 02       	movi55 $r0,#0x2
    2a0c:	84 20       	movi55 $r1,#0x0
    2a0e:	49 00 2f 97 	jal 893c <Clock_AudioMclkSel>
    2a12:	d5 05       	j8 2a1c <AudioADC_DigitalInit+0x98>
    2a14:	84 02       	movi55 $r0,#0x2
    2a16:	84 21       	movi55 $r1,#0x1
    2a18:	49 00 2f 92 	jal 893c <Clock_AudioMclkSel>
    2a1c:	84 00       	movi55 $r0,#0x0
    2a1e:	80 27       	mov55 $r1,$r7
    2a20:	49 00 28 ba 	jal 7b94 <AudioADC_SampleRateSet>
    2a24:	84 00       	movi55 $r0,#0x0
    2a26:	84 21       	movi55 $r1,#0x1
    2a28:	49 00 28 4e 	jal 7ac4 <AudioADC_HighPassFilterSet>
    2a2c:	84 00       	movi55 $r0,#0x0
    2a2e:	84 21       	movi55 $r1,#0x1
    2a30:	84 41       	movi55 $r2,#0x1
    2a32:	49 00 27 8a 	jal 7946 <AudioADC_LREnable>
    2a36:	84 00       	movi55 $r0,#0x0
    2a38:	84 2a       	movi55 $r1,#0xa
    2a3a:	49 00 29 48 	jal 7cca <AudioADC_FadeTimeSet>
    2a3e:	84 00       	movi55 $r0,#0x0
    2a40:	49 00 29 73 	jal 7d26 <AudioADC_FadeEnable>
    2a44:	84 00       	movi55 $r0,#0x0
    2a46:	44 10 0f ff 	movi $r1,#0xfff
    2a4a:	44 20 0f ff 	movi $r2,#0xfff
    2a4e:	49 00 29 cd 	jal 7de8 <AudioADC_VolSet>
    2a52:	84 00       	movi55 $r0,#0x0
    2a54:	84 20       	movi55 $r1,#0x0
    2a56:	84 40       	movi55 $r2,#0x0
    2a58:	49 00 29 82 	jal 7d5c <AudioADC_SoftMute>
    2a5c:	84 00       	movi55 $r0,#0x0
    2a5e:	49 00 28 4e 	jal 7afa <AudioADC_Clear>
    2a62:	84 00       	movi55 $r0,#0x0
    2a64:	49 00 27 f2 	jal 7a48 <AudioADC_Enable>
    2a68:	fa 02       	movpi45 $r0,#0x12
    2a6a:	49 00 35 3f 	jal 94e8 <DMA_ChannelEnable>
    2a6e:	d5 69       	j8 2b40 <AudioADC_DigitalInit+0x1bc>
    2a70:	5a 68 01 68 	bnec $r6,#0x1,2b40 <AudioADC_DigitalInit+0x1bc>
    2a74:	84 01       	movi55 $r0,#0x1
    2a76:	49 00 27 f8 	jal 7a66 <AudioADC_Disable>
    2a7a:	fa 03       	movpi45 $r0,#0x13
    2a7c:	84 20       	movi55 $r1,#0x0
    2a7e:	49 00 35 8c 	jal 9596 <DMA_InterruptFlagClear>
    2a82:	fa 03       	movpi45 $r0,#0x13
    2a84:	84 21       	movi55 $r1,#0x1
    2a86:	49 00 35 88 	jal 9596 <DMA_InterruptFlagClear>
    2a8a:	fa 03       	movpi45 $r0,#0x13
    2a8c:	84 22       	movi55 $r1,#0x2
    2a8e:	49 00 35 84 	jal 9596 <DMA_InterruptFlagClear>
    2a92:	fa 03       	movpi45 $r0,#0x13
    2a94:	49 00 35 40 	jal 9514 <DMA_ChannelDisable>
    2a98:	fa 03       	movpi45 $r0,#0x13
    2a9a:	40 14 04 09 	srli $r1,$r8,#0x1
    2a9e:	80 49       	mov55 $r2,$r9
    2aa0:	80 68       	mov55 $r3,$r8
    2aa2:	49 00 37 0d 	jal 98bc <DMA_CircularConfig>
    2aa6:	84 01       	movi55 $r0,#0x1
    2aa8:	49 00 2b ca 	jal 823c <AudioADC_IsOverflow>
    2aac:	c0 04       	beqz38 $r0,2ab4 <AudioADC_DigitalInit+0x130>
    2aae:	84 01       	movi55 $r0,#0x1
    2ab0:	49 00 2b d2 	jal 8254 <AudioADC_OverflowClear>
    2ab4:	84 01       	movi55 $r0,#0x1
    2ab6:	49 00 28 22 	jal 7afa <AudioADC_Clear>
    2aba:	44 00 2b 11 	movi $r0,#0x2b11
    2abe:	4c 70 00 0a 	beq $r7,$r0,2ad2 <AudioADC_DigitalInit+0x14e>
    2ac2:	44 00 56 22 	movi $r0,#0x5622
    2ac6:	4c 70 00 06 	beq $r7,$r0,2ad2 <AudioADC_DigitalInit+0x14e>
    2aca:	44 00 ac 44 	movi $r0,#0xac44
    2ace:	4c 70 40 07 	bne $r7,$r0,2adc <AudioADC_DigitalInit+0x158>
    2ad2:	84 03       	movi55 $r0,#0x3
    2ad4:	84 20       	movi55 $r1,#0x0
    2ad6:	49 00 2f 33 	jal 893c <Clock_AudioMclkSel>
    2ada:	d5 05       	j8 2ae4 <AudioADC_DigitalInit+0x160>
    2adc:	84 03       	movi55 $r0,#0x3
    2ade:	84 21       	movi55 $r1,#0x1
    2ae0:	49 00 2f 2e 	jal 893c <Clock_AudioMclkSel>
    2ae4:	84 01       	movi55 $r0,#0x1
    2ae6:	80 27       	mov55 $r1,$r7
    2ae8:	49 00 28 56 	jal 7b94 <AudioADC_SampleRateSet>
    2aec:	84 01       	movi55 $r0,#0x1
    2aee:	44 10 0f fe 	movi $r1,#0xffe
    2af2:	49 00 27 df 	jal 7ab0 <AudioADC_HighPassFilterConfig>
    2af6:	84 01       	movi55 $r0,#0x1
    2af8:	84 21       	movi55 $r1,#0x1
    2afa:	49 00 27 e5 	jal 7ac4 <AudioADC_HighPassFilterSet>
    2afe:	84 01       	movi55 $r0,#0x1
    2b00:	84 21       	movi55 $r1,#0x1
    2b02:	84 41       	movi55 $r2,#0x1
    2b04:	49 00 27 21 	jal 7946 <AudioADC_LREnable>
    2b08:	84 01       	movi55 $r0,#0x1
    2b0a:	84 2a       	movi55 $r1,#0xa
    2b0c:	49 00 28 df 	jal 7cca <AudioADC_FadeTimeSet>
    2b10:	84 01       	movi55 $r0,#0x1
    2b12:	49 00 29 0a 	jal 7d26 <AudioADC_FadeEnable>
    2b16:	84 01       	movi55 $r0,#0x1
    2b18:	44 10 0f ff 	movi $r1,#0xfff
    2b1c:	44 20 0f ff 	movi $r2,#0xfff
    2b20:	49 00 29 64 	jal 7de8 <AudioADC_VolSet>
    2b24:	84 01       	movi55 $r0,#0x1
    2b26:	84 20       	movi55 $r1,#0x0
    2b28:	84 40       	movi55 $r2,#0x0
    2b2a:	49 00 29 19 	jal 7d5c <AudioADC_SoftMute>
    2b2e:	84 01       	movi55 $r0,#0x1
    2b30:	49 00 27 e5 	jal 7afa <AudioADC_Clear>
    2b34:	84 01       	movi55 $r0,#0x1
    2b36:	49 00 27 89 	jal 7a48 <AudioADC_Enable>
    2b3a:	fa 03       	movpi45 $r0,#0x13
    2b3c:	49 00 34 d6 	jal 94e8 <DMA_ChannelEnable>
    2b40:	3a 6f a8 84 	lmw.bim $r6,[$sp],$r10,#0x2    ! {$r6~$r10, $lp}
    2b44:	dd 9e       	ret5 $lp

00002b46 <AudioADC_DataLenGet>:
    2b46:	3b ff fc bc 	smw.adm $sp,[$sp],$sp,#0x2    ! {$lp}
    2b4a:	ef fc       	addi10.sp #-4
    2b4c:	c8 06       	bnez38 $r0,2b58 <AudioADC_DataLenGet+0x12>
    2b4e:	fa 02       	movpi45 $r0,#0x12
    2b50:	49 00 37 a8 	jal 9aa0 <DMA_CircularDataLenGet>
    2b54:	96 01       	zeh33 $r0,$r0
    2b56:	d5 09       	j8 2b68 <AudioADC_DataLenGet+0x22>
    2b58:	5a 08 01 07 	bnec $r0,#0x1,2b66 <AudioADC_DataLenGet+0x20>
    2b5c:	fa 03       	movpi45 $r0,#0x13
    2b5e:	49 00 37 a1 	jal 9aa0 <DMA_CircularDataLenGet>
    2b62:	96 01       	zeh33 $r0,$r0
    2b64:	d5 02       	j8 2b68 <AudioADC_DataLenGet+0x22>
    2b66:	84 00       	movi55 $r0,#0x0
    2b68:	92 02       	srli45 $r0,#0x2
    2b6a:	ec 04       	addi10.sp #0x4
    2b6c:	3b ff fc 84 	lmw.bim $sp,[$sp],$sp,#0x2    ! {$lp}
    2b70:	dd 9e       	ret5 $lp

00002b72 <AudioADC_DataGet>:
    2b72:	3a 6f a8 bc 	smw.adm $r6,[$sp],$r10,#0x2    ! {$r6~$r10, $lp}
    2b76:	80 c0       	mov55 $r6,$r0
    2b78:	81 21       	mov55 $r9,$r1
    2b7a:	81 02       	mov55 $r8,$r2
    2b7c:	c8 06       	bnez38 $r0,2b88 <AudioADC_DataGet+0x16>
    2b7e:	fa 02       	movpi45 $r0,#0x12
    2b80:	49 00 37 90 	jal 9aa0 <DMA_CircularDataLenGet>
    2b84:	97 c1       	zeh33 $r7,$r0
    2b86:	d5 09       	j8 2b98 <AudioADC_DataGet+0x26>
    2b88:	5a 08 01 07 	bnec $r0,#0x1,2b96 <AudioADC_DataGet+0x24>
    2b8c:	fa 03       	movpi45 $r0,#0x13
    2b8e:	49 00 37 89 	jal 9aa0 <DMA_CircularDataLenGet>
    2b92:	97 c1       	zeh33 $r7,$r0
    2b94:	d5 02       	j8 2b98 <AudioADC_DataGet+0x26>
    2b96:	84 e0       	movi55 $r7,#0x0
    2b98:	40 34 08 08 	slli $r3,$r8,#0x2
    2b9c:	e0 67       	slts45 $r3,$r7
    2b9e:	e8 04       	beqzs8 2ba6 <AudioADC_DataGet+0x34>
    2ba0:	40 74 08 08 	slli $r7,$r8,#0x2
    2ba4:	97 f9       	zeh33 $r7,$r7
    2ba6:	ce 09       	bnez38 $r6,2bb8 <AudioADC_DataGet+0x46>
    2ba8:	fa 02       	movpi45 $r0,#0x12
    2baa:	80 29       	mov55 $r1,$r9
    2bac:	44 20 ff fc 	movi $r2,#0xfffc
    2bb0:	fe be       	and33 $r2,$r7
    2bb2:	49 00 39 08 	jal 9dc2 <DMA_CircularDataGet>
    2bb6:	d5 0a       	j8 2bca <AudioADC_DataGet+0x58>
    2bb8:	5a 68 01 09 	bnec $r6,#0x1,2bca <AudioADC_DataGet+0x58>
    2bbc:	fa 03       	movpi45 $r0,#0x13
    2bbe:	80 29       	mov55 $r1,$r9
    2bc0:	44 20 ff fc 	movi $r2,#0xfffc
    2bc4:	fe be       	and33 $r2,$r7
    2bc6:	49 00 38 fe 	jal 9dc2 <DMA_CircularDataGet>
    2bca:	40 03 88 09 	srli $r0,$r7,#0x2
    2bce:	3a 6f a8 84 	lmw.bim $r6,[$sp],$r10,#0x2    ! {$r6~$r10, $lp}
    2bd2:	dd 9e       	ret5 $lp

00002bd4 <AudioDAC_Init>:
    2bd4:	3a 6f b8 bc 	smw.adm $r6,[$sp],$r14,#0x2    ! {$r6~$r14, $lp}
    2bd8:	fd 40       	movd44 $r8,$r0
    2bda:	81 a2       	mov55 $r13,$r2
    2bdc:	81 63       	mov55 $r11,$r3
    2bde:	81 84       	mov55 $r12,$r4
    2be0:	81 45       	mov55 $r10,$r5
    2be2:	c0 06       	beqz38 $r0,2bee <AudioDAC_Init+0x1a>
    2be4:	84 c1       	movi55 $r6,#0x1
    2be6:	5a 08 01 07 	bnec $r0,#0x1,2bf4 <AudioDAC_Init+0x20>
    2bea:	84 e0       	movi55 $r7,#0x0
    2bec:	d5 05       	j8 2bf6 <AudioDAC_Init+0x22>
    2bee:	84 c0       	movi55 $r6,#0x0
    2bf0:	84 e1       	movi55 $r7,#0x1
    2bf2:	d5 02       	j8 2bf6 <AudioDAC_Init+0x22>
    2bf4:	84 e1       	movi55 $r7,#0x1
    2bf6:	84 02       	movi55 $r0,#0x2
    2bf8:	84 20       	movi55 $r1,#0x0
    2bfa:	46 20 0a c4 	sethi $r2,#0xac4
    2bfe:	50 21 04 00 	addi $r2,$r2,#0x400
    2c02:	49 00 2d ef 	jal 87e0 <Clock_AudioPllClockSet>
    2c06:	84 02       	movi55 $r0,#0x2
    2c08:	84 21       	movi55 $r1,#0x1
    2c0a:	46 20 0b b8 	sethi $r2,#0xbb8
    2c0e:	49 00 2d e9 	jal 87e0 <Clock_AudioPllClockSet>
    2c12:	c7 16       	beqz38 $r7,2c3e <AudioDAC_Init+0x6a>
    2c14:	44 00 2b 11 	movi $r0,#0x2b11
    2c18:	4c 90 00 0a 	beq $r9,$r0,2c2c <AudioDAC_Init+0x58>
    2c1c:	44 00 56 22 	movi $r0,#0x5622
    2c20:	4c 90 00 06 	beq $r9,$r0,2c2c <AudioDAC_Init+0x58>
    2c24:	44 00 ac 44 	movi $r0,#0xac44
    2c28:	4c 90 40 07 	bne $r9,$r0,2c36 <AudioDAC_Init+0x62>
    2c2c:	84 00       	movi55 $r0,#0x0
    2c2e:	84 20       	movi55 $r1,#0x0
    2c30:	49 00 2e 86 	jal 893c <Clock_AudioMclkSel>
    2c34:	d5 05       	j8 2c3e <AudioDAC_Init+0x6a>
    2c36:	84 00       	movi55 $r0,#0x0
    2c38:	84 21       	movi55 $r1,#0x1
    2c3a:	49 00 2e 81 	jal 893c <Clock_AudioMclkSel>
    2c3e:	c6 16       	beqz38 $r6,2c6a <AudioDAC_Init+0x96>
    2c40:	44 00 2b 11 	movi $r0,#0x2b11
    2c44:	4c 90 00 0a 	beq $r9,$r0,2c58 <AudioDAC_Init+0x84>
    2c48:	44 00 56 22 	movi $r0,#0x5622
    2c4c:	4c 90 00 06 	beq $r9,$r0,2c58 <AudioDAC_Init+0x84>
    2c50:	44 00 ac 44 	movi $r0,#0xac44
    2c54:	4c 90 40 07 	bne $r9,$r0,2c62 <AudioDAC_Init+0x8e>
    2c58:	84 01       	movi55 $r0,#0x1
    2c5a:	84 20       	movi55 $r1,#0x0
    2c5c:	49 00 2e 70 	jal 893c <Clock_AudioMclkSel>
    2c60:	d5 05       	j8 2c6a <AudioDAC_Init+0x96>
    2c62:	84 01       	movi55 $r0,#0x1
    2c64:	84 21       	movi55 $r1,#0x1
    2c66:	49 00 2e 6b 	jal 893c <Clock_AudioMclkSel>
    2c6a:	c7 35       	beqz38 $r7,2cd4 <AudioDAC_Init+0x100>
    2c6c:	84 00       	movi55 $r0,#0x0
    2c6e:	80 29       	mov55 $r1,$r9
    2c70:	49 00 30 85 	jal 8d7a <AudioDAC_SampleRateSet>
    2c74:	84 00       	movi55 $r0,#0x0
    2c76:	84 21       	movi55 $r1,#0x1
    2c78:	49 00 2f fb 	jal 8c6e <AudioDAC_EdgeSet>
    2c7c:	84 00       	movi55 $r0,#0x0
    2c7e:	44 10 0f ff 	movi $r1,#0xfff
    2c82:	44 20 0f ff 	movi $r2,#0xfff
    2c86:	49 00 31 9b 	jal 8fbc <AudioDAC_VolSet>
    2c8a:	84 00       	movi55 $r0,#0x0
    2c8c:	49 00 2f c2 	jal 8c10 <AudioDAC_ScrambleDisable>
    2c90:	84 00       	movi55 $r0,#0x0
    2c92:	49 00 2f b0 	jal 8bf2 <AudioDAC_DitherDisable>
    2c96:	84 00       	movi55 $r0,#0x0
    2c98:	84 20       	movi55 $r1,#0x0
    2c9a:	84 40       	movi55 $r2,#0x0
    2c9c:	49 00 2f c9 	jal 8c2e <AudioDAC_DoutModeSet>
    2ca0:	84 00       	movi55 $r0,#0x0
    2ca2:	84 21       	movi55 $r1,#0x1
    2ca4:	49 00 30 08 	jal 8cb4 <AudioDAC_DsmOutdisModeSet>
    2ca8:	84 00       	movi55 $r0,#0x0
    2caa:	84 20       	movi55 $r1,#0x0
    2cac:	49 00 30 1b 	jal 8ce2 <AudioDAC_ZeroNumSet>
    2cb0:	84 00       	movi55 $r0,#0x0
    2cb2:	49 00 32 b2 	jal 9216 <AudioDAC_FuncReset>
    2cb6:	84 00       	movi55 $r0,#0x0
    2cb8:	84 21       	movi55 $r1,#0x1
    2cba:	84 41       	movi55 $r2,#0x1
    2cbc:	49 00 31 60 	jal 8f7c <AudioDAC_DigitalMute>
    2cc0:	84 0a       	movi55 $r0,#0xa
    2cc2:	49 ff fa 87 	jal 21d0 <DelayMs>
    2cc6:	84 00       	movi55 $r0,#0x0
    2cc8:	84 2a       	movi55 $r1,#0xa
    2cca:	49 00 31 0c 	jal 8ee2 <AudioDAC_FadeTimeSet>
    2cce:	84 00       	movi55 $r0,#0x0
    2cd0:	49 00 31 3d 	jal 8f4a <AudioDAC_FadeEnable>
    2cd4:	c6 30       	beqz38 $r6,2d34 <AudioDAC_Init+0x160>
    2cd6:	84 01       	movi55 $r0,#0x1
    2cd8:	80 29       	mov55 $r1,$r9
    2cda:	49 00 30 50 	jal 8d7a <AudioDAC_SampleRateSet>
    2cde:	84 01       	movi55 $r0,#0x1
    2ce0:	84 21       	movi55 $r1,#0x1
    2ce2:	49 00 2f c6 	jal 8c6e <AudioDAC_EdgeSet>
    2ce6:	84 01       	movi55 $r0,#0x1
    2ce8:	44 10 0f ff 	movi $r1,#0xfff
    2cec:	44 20 0f ff 	movi $r2,#0xfff
    2cf0:	49 00 31 66 	jal 8fbc <AudioDAC_VolSet>
    2cf4:	84 01       	movi55 $r0,#0x1
    2cf6:	49 00 2f 8d 	jal 8c10 <AudioDAC_ScrambleDisable>
    2cfa:	84 01       	movi55 $r0,#0x1
    2cfc:	49 00 2f 7b 	jal 8bf2 <AudioDAC_DitherDisable>
    2d00:	84 01       	movi55 $r0,#0x1
    2d02:	84 21       	movi55 $r1,#0x1
    2d04:	49 00 2f d8 	jal 8cb4 <AudioDAC_DsmOutdisModeSet>
    2d08:	84 01       	movi55 $r0,#0x1
    2d0a:	84 20       	movi55 $r1,#0x0
    2d0c:	49 00 2f eb 	jal 8ce2 <AudioDAC_ZeroNumSet>
    2d10:	84 01       	movi55 $r0,#0x1
    2d12:	49 00 32 82 	jal 9216 <AudioDAC_FuncReset>
    2d16:	84 01       	movi55 $r0,#0x1
    2d18:	84 21       	movi55 $r1,#0x1
    2d1a:	84 41       	movi55 $r2,#0x1
    2d1c:	49 00 31 30 	jal 8f7c <AudioDAC_DigitalMute>
    2d20:	84 0a       	movi55 $r0,#0xa
    2d22:	49 ff fa 57 	jal 21d0 <DelayMs>
    2d26:	84 01       	movi55 $r0,#0x1
    2d28:	84 2a       	movi55 $r1,#0xa
    2d2a:	49 00 30 dc 	jal 8ee2 <AudioDAC_FadeTimeSet>
    2d2e:	84 01       	movi55 $r0,#0x1
    2d30:	49 00 31 0d 	jal 8f4a <AudioDAC_FadeEnable>
    2d34:	49 00 32 88 	jal 9244 <AudioDAC_VIMDControl>
    2d38:	4e 83 00 0e 	bnez $r8,2d54 <AudioDAC_Init+0x180>
    2d3c:	84 00       	movi55 $r0,#0x0
    2d3e:	49 00 33 bd 	jal 94b8 <AudioDAC_ChannelEnable>
    2d42:	84 00       	movi55 $r0,#0x0
    2d44:	49 00 33 a9 	jal 9496 <AudioDAC_PowerOn>
    2d48:	c0 1d       	beqz38 $r0,2d82 <AudioDAC_Init+0x1ae>
    2d4a:	44 00 e4 d0 	movi $r0,#0xe4d0
    2d4e:	49 00 55 3a 	jal d7c2 <puts>
    2d52:	d5 18       	j8 2d82 <AudioDAC_Init+0x1ae>
    2d54:	5a 88 01 0e 	bnec $r8,#0x1,2d70 <AudioDAC_Init+0x19c>
    2d58:	84 01       	movi55 $r0,#0x1
    2d5a:	49 00 33 af 	jal 94b8 <AudioDAC_ChannelEnable>
    2d5e:	84 01       	movi55 $r0,#0x1
    2d60:	49 00 33 9b 	jal 9496 <AudioDAC_PowerOn>
    2d64:	c0 0f       	beqz38 $r0,2d82 <AudioDAC_Init+0x1ae>
    2d66:	44 00 e4 e4 	movi $r0,#0xe4e4
    2d6a:	49 00 55 2c 	jal d7c2 <puts>
    2d6e:	d5 0a       	j8 2d82 <AudioDAC_Init+0x1ae>
    2d70:	49 00 33 4d 	jal 940a <AudioDAC_AllChannelEnable>
    2d74:	49 00 32 b9 	jal 92e6 <AudioDAC_AllPowerOn>
    2d78:	c0 05       	beqz38 $r0,2d82 <AudioDAC_Init+0x1ae>
    2d7a:	44 00 e4 f8 	movi $r0,#0xe4f8
    2d7e:	49 00 55 22 	jal d7c2 <puts>
    2d82:	c7 06       	beqz38 $r7,2d8e <AudioDAC_Init+0x1ba>
    2d84:	84 00       	movi55 $r0,#0x0
    2d86:	84 20       	movi55 $r1,#0x0
    2d88:	84 40       	movi55 $r2,#0x0
    2d8a:	49 00 32 66 	jal 9256 <AudioDAC_SCFMute>
    2d8e:	c6 06       	beqz38 $r6,2d9a <AudioDAC_Init+0x1c6>
    2d90:	84 01       	movi55 $r0,#0x1
    2d92:	84 20       	movi55 $r1,#0x0
    2d94:	84 40       	movi55 $r2,#0x0
    2d96:	49 00 32 60 	jal 9256 <AudioDAC_SCFMute>
    2d9a:	c7 0e       	beqz38 $r7,2db6 <AudioDAC_Init+0x1e2>
    2d9c:	fa 04       	movpi45 $r0,#0x14
    2d9e:	49 00 33 bb 	jal 9514 <DMA_ChannelDisable>
    2da2:	fa 04       	movpi45 $r0,#0x14
    2da4:	40 15 84 09 	srli $r1,$r11,#0x1
    2da8:	80 4d       	mov55 $r2,$r13
    2daa:	80 6b       	mov55 $r3,$r11
    2dac:	49 00 35 88 	jal 98bc <DMA_CircularConfig>
    2db0:	fa 04       	movpi45 $r0,#0x14
    2db2:	49 00 33 9b 	jal 94e8 <DMA_ChannelEnable>
    2db6:	c6 0e       	beqz38 $r6,2dd2 <AudioDAC_Init+0x1fe>
    2db8:	fa 05       	movpi45 $r0,#0x15
    2dba:	49 00 33 ad 	jal 9514 <DMA_ChannelDisable>
    2dbe:	fa 05       	movpi45 $r0,#0x15
    2dc0:	40 15 04 09 	srli $r1,$r10,#0x1
    2dc4:	80 4c       	mov55 $r2,$r12
    2dc6:	80 6a       	mov55 $r3,$r10
    2dc8:	49 00 35 7a 	jal 98bc <DMA_CircularConfig>
    2dcc:	fa 05       	movpi45 $r0,#0x15
    2dce:	49 00 33 8d 	jal 94e8 <DMA_ChannelEnable>
    2dd2:	c7 05       	beqz38 $r7,2ddc <AudioDAC_Init+0x208>
    2dd4:	84 00       	movi55 $r0,#0x0
    2dd6:	84 21       	movi55 $r1,#0x1
    2dd8:	49 00 32 08 	jal 91e8 <AudioDAC_ClkEnable>
    2ddc:	c6 05       	beqz38 $r6,2de6 <AudioDAC_Init+0x212>
    2dde:	84 01       	movi55 $r0,#0x1
    2de0:	84 21       	movi55 $r1,#0x1
    2de2:	49 00 32 03 	jal 91e8 <AudioDAC_ClkEnable>
    2de6:	c7 0c       	beqz38 $r7,2dfe <AudioDAC_Init+0x22a>
    2de8:	84 00       	movi55 $r0,#0x0
    2dea:	49 00 2e f5 	jal 8bd4 <AudioDAC_Enable>
    2dee:	84 00       	movi55 $r0,#0x0
    2df0:	49 00 30 68 	jal 8ec0 <AudioDAC_Reset>
    2df4:	84 00       	movi55 $r0,#0x0
    2df6:	84 20       	movi55 $r1,#0x0
    2df8:	84 40       	movi55 $r2,#0x0
    2dfa:	49 00 30 c1 	jal 8f7c <AudioDAC_DigitalMute>
    2dfe:	c6 0c       	beqz38 $r6,2e16 <AudioDAC_Init+0x242>
    2e00:	84 01       	movi55 $r0,#0x1
    2e02:	49 00 2e e9 	jal 8bd4 <AudioDAC_Enable>
    2e06:	84 01       	movi55 $r0,#0x1
    2e08:	49 00 30 5c 	jal 8ec0 <AudioDAC_Reset>
    2e0c:	84 01       	movi55 $r0,#0x1
    2e0e:	84 20       	movi55 $r1,#0x0
    2e10:	84 40       	movi55 $r2,#0x0
    2e12:	49 00 30 b5 	jal 8f7c <AudioDAC_DigitalMute>
    2e16:	c7 06       	beqz38 $r7,2e22 <AudioDAC_Init+0x24e>
    2e18:	84 00       	movi55 $r0,#0x0
    2e1a:	84 23       	movi55 $r1,#0x3
    2e1c:	84 43       	movi55 $r2,#0x3
    2e1e:	49 00 32 3f 	jal 929c <AudioDAC_IBSelect>
    2e22:	c6 06       	beqz38 $r6,2e2e <AudioDAC_Init+0x25a>
    2e24:	84 01       	movi55 $r0,#0x1
    2e26:	84 23       	movi55 $r1,#0x3
    2e28:	84 43       	movi55 $r2,#0x3
    2e2a:	49 00 32 39 	jal 929c <AudioDAC_IBSelect>
    2e2e:	3a 6f b8 84 	lmw.bim $r6,[$sp],$r14,#0x2    ! {$r6~$r14, $lp}
    2e32:	dd 9e       	ret5 $lp

00002e34 <AudioDAC_DataSpaceLenGet>:
    2e34:	3b ff fc bc 	smw.adm $sp,[$sp],$sp,#0x2    ! {$lp}
    2e38:	ef fc       	addi10.sp #-4
    2e3a:	c8 0b       	bnez38 $r0,2e50 <AudioDAC_DataSpaceLenGet+0x1c>
    2e3c:	fa 04       	movpi45 $r0,#0x14
    2e3e:	49 00 36 6a 	jal 9b12 <DMA_CircularSpaceLenGet>
    2e42:	40 10 7c 0a 	srai $r1,$r0,#0x1f
    2e46:	92 3e       	srli45 $r1,#0x1e
    2e48:	88 01       	add45 $r0,$r1
    2e4a:	90 02       	srai45 $r0,#0x2
    2e4c:	96 01       	zeh33 $r0,$r0
    2e4e:	d5 0d       	j8 2e68 <AudioDAC_DataSpaceLenGet+0x34>
    2e50:	5a 08 01 0b 	bnec $r0,#0x1,2e66 <AudioDAC_DataSpaceLenGet+0x32>
    2e54:	fa 05       	movpi45 $r0,#0x15
    2e56:	49 00 36 5e 	jal 9b12 <DMA_CircularSpaceLenGet>
    2e5a:	40 10 7c 09 	srli $r1,$r0,#0x1f
    2e5e:	88 01       	add45 $r0,$r1
    2e60:	90 01       	srai45 $r0,#0x1
    2e62:	96 01       	zeh33 $r0,$r0
    2e64:	d5 02       	j8 2e68 <AudioDAC_DataSpaceLenGet+0x34>
    2e66:	84 00       	movi55 $r0,#0x0
    2e68:	ec 04       	addi10.sp #0x4
    2e6a:	3b ff fc 84 	lmw.bim $sp,[$sp],$sp,#0x2    ! {$lp}
    2e6e:	dd 9e       	ret5 $lp

00002e70 <AudioDAC_DataSet>:
    2e70:	3b ff fc bc 	smw.adm $sp,[$sp],$sp,#0x2    ! {$lp}
    2e74:	ef fc       	addi10.sp #-4
    2e76:	c1 0f       	beqz38 $r1,2e94 <AudioDAC_DataSet+0x24>
    2e78:	c8 07       	bnez38 $r0,2e86 <AudioDAC_DataSet+0x16>
    2e7a:	94 92       	slli333 $r2,$r2,#0x2
    2e7c:	96 91       	zeh33 $r2,$r2
    2e7e:	fa 04       	movpi45 $r0,#0x14
    2e80:	49 00 36 d3 	jal 9c26 <DMA_CircularDataPut>
    2e84:	d5 08       	j8 2e94 <AudioDAC_DataSet+0x24>
    2e86:	5a 08 01 07 	bnec $r0,#0x1,2e94 <AudioDAC_DataSet+0x24>
    2e8a:	94 91       	slli333 $r2,$r2,#0x1
    2e8c:	96 91       	zeh33 $r2,$r2
    2e8e:	fa 05       	movpi45 $r0,#0x15
    2e90:	49 00 36 cb 	jal 9c26 <DMA_CircularDataPut>
    2e94:	84 00       	movi55 $r0,#0x0
    2e96:	ec 04       	addi10.sp #0x4
    2e98:	3b ff fc 84 	lmw.bim $sp,[$sp],$sp,#0x2    ! {$lp}
    2e9c:	dd 9e       	ret5 $lp

00002e9e <SPIM_DMA_Done_Clear>:
    2e9e:	3b ff fc bc 	smw.adm $sp,[$sp],$sp,#0x2    ! {$lp}
    2ea2:	ef fc       	addi10.sp #-4
    2ea4:	84 20       	movi55 $r1,#0x0
    2ea6:	49 00 33 78 	jal 9596 <DMA_InterruptFlagClear>
    2eaa:	ec 04       	addi10.sp #0x4
    2eac:	3b ff fc 84 	lmw.bim $sp,[$sp],$sp,#0x2    ! {$lp}
    2eb0:	dd 9e       	ret5 $lp

00002eb2 <SPIM_DMA_HalfDone>:
    2eb2:	3a 6f 98 bc 	smw.adm $r6,[$sp],$r6,#0x2    ! {$r6, $lp}
    2eb6:	80 c0       	mov55 $r6,$r0
    2eb8:	84 20       	movi55 $r1,#0x0
    2eba:	49 00 33 44 	jal 9542 <DMA_InterruptFlagGet>
    2ebe:	c0 0e       	beqz38 $r0,2eda <SPIM_DMA_HalfDone+0x28>
    2ec0:	49 00 41 fe 	jal b2bc <SPIM_GetIntFlag>
    2ec4:	c0 0c       	beqz38 $r0,2edc <SPIM_DMA_HalfDone+0x2a>
    2ec6:	80 06       	mov55 $r0,$r6
    2ec8:	49 ff ff eb 	jal 2e9e <SPIM_DMA_Done_Clear>
    2ecc:	84 00       	movi55 $r0,#0x0
    2ece:	49 00 42 06 	jal b2da <SPIM_SetDmaEn>
    2ed2:	49 00 41 fb 	jal b2c8 <SPIM_ClrIntFlag>
    2ed6:	84 01       	movi55 $r0,#0x1
    2ed8:	d5 02       	j8 2edc <SPIM_DMA_HalfDone+0x2a>
    2eda:	84 00       	movi55 $r0,#0x0
    2edc:	3a 6f 98 84 	lmw.bim $r6,[$sp],$r6,#0x2    ! {$r6, $lp}
    2ee0:	dd 9e       	ret5 $lp

00002ee2 <SPIM_DMA_Send_Start>:
    2ee2:	3a 6f a0 bc 	smw.adm $r6,[$sp],$r8,#0x2    ! {$r6~$r8, $lp}
    2ee6:	80 e0       	mov55 $r7,$r0
    2ee8:	80 c1       	mov55 $r6,$r1
    2eea:	84 0b       	movi55 $r0,#0xb
    2eec:	49 00 33 14 	jal 9514 <DMA_ChannelDisable>
    2ef0:	84 0b       	movi55 $r0,#0xb
    2ef2:	84 20       	movi55 $r1,#0x0
    2ef4:	49 00 33 51 	jal 9596 <DMA_InterruptFlagClear>
    2ef8:	84 0b       	movi55 $r0,#0xb
    2efa:	49 00 33 a1 	jal 963c <DMA_BlockConfig>
    2efe:	84 0b       	movi55 $r0,#0xb
    2f00:	80 27       	mov55 $r1,$r7
    2f02:	96 b1       	zeh33 $r2,$r6
    2f04:	49 00 34 6b 	jal 97da <DMA_BlockBufSet>
    2f08:	84 0b       	movi55 $r0,#0xb
    2f0a:	49 00 32 ef 	jal 94e8 <DMA_ChannelEnable>
    2f0e:	80 06       	mov55 $r0,$r6
    2f10:	84 21       	movi55 $r1,#0x1
    2f12:	84 40       	movi55 $r2,#0x0
    2f14:	49 00 41 b7 	jal b282 <SPIM_DMAStart>
    2f18:	3a 6f a0 84 	lmw.bim $r6,[$sp],$r8,#0x2    ! {$r6~$r8, $lp}
    2f1c:	dd 9e       	ret5 $lp

00002f1e <SPIM_DMA_Recv_Start>:
    2f1e:	3a 6f a0 bc 	smw.adm $r6,[$sp],$r8,#0x2    ! {$r6~$r8, $lp}
    2f22:	80 e0       	mov55 $r7,$r0
    2f24:	80 c1       	mov55 $r6,$r1
    2f26:	84 0a       	movi55 $r0,#0xa
    2f28:	49 00 32 f6 	jal 9514 <DMA_ChannelDisable>
    2f2c:	84 0a       	movi55 $r0,#0xa
    2f2e:	84 20       	movi55 $r1,#0x0
    2f30:	49 00 33 33 	jal 9596 <DMA_InterruptFlagClear>
    2f34:	84 0a       	movi55 $r0,#0xa
    2f36:	49 00 33 83 	jal 963c <DMA_BlockConfig>
    2f3a:	84 0a       	movi55 $r0,#0xa
    2f3c:	80 27       	mov55 $r1,$r7
    2f3e:	96 b1       	zeh33 $r2,$r6
    2f40:	49 00 34 4d 	jal 97da <DMA_BlockBufSet>
    2f44:	84 0a       	movi55 $r0,#0xa
    2f46:	49 00 32 d1 	jal 94e8 <DMA_ChannelEnable>
    2f4a:	80 06       	mov55 $r0,$r6
    2f4c:	84 20       	movi55 $r1,#0x0
    2f4e:	84 41       	movi55 $r2,#0x1
    2f50:	49 00 41 99 	jal b282 <SPIM_DMAStart>
    2f54:	3a 6f a0 84 	lmw.bim $r6,[$sp],$r8,#0x2    ! {$r6~$r8, $lp}
    2f58:	dd 9e       	ret5 $lp

00002f5a <UART0_InitWpr>:
    2f5a:	3b ff fc bc 	smw.adm $sp,[$sp],$sp,#0x2    ! {$lp}
    2f5e:	ef fc       	addi10.sp #-4
    2f60:	49 00 43 3d 	jal b5da <UART0_Init>
    2f64:	ec 04       	addi10.sp #0x4
    2f66:	3b ff fc 84 	lmw.bim $sp,[$sp],$sp,#0x2    ! {$lp}
    2f6a:	dd 9e       	ret5 $lp

00002f6c <UART1_InitWpr>:
    2f6c:	3b ff fc bc 	smw.adm $sp,[$sp],$sp,#0x2    ! {$lp}
    2f70:	ef fc       	addi10.sp #-4
    2f72:	49 00 44 1b 	jal b7a8 <UART1_Init>
    2f76:	ec 04       	addi10.sp #0x4
    2f78:	3b ff fc 84 	lmw.bim $sp,[$sp],$sp,#0x2    ! {$lp}
    2f7c:	dd 9e       	ret5 $lp

00002f7e <UART0_SendByteWpr>:
    2f7e:	3b ff fc bc 	smw.adm $sp,[$sp],$sp,#0x2    ! {$lp}
    2f82:	ef fc       	addi10.sp #-4
    2f84:	49 00 44 fe 	jal b980 <UART0_SendByte>
    2f88:	ec 04       	addi10.sp #0x4
    2f8a:	3b ff fc 84 	lmw.bim $sp,[$sp],$sp,#0x2    ! {$lp}
    2f8e:	dd 9e       	ret5 $lp

00002f90 <UART1_SendByteWpr>:
    2f90:	3b ff fc bc 	smw.adm $sp,[$sp],$sp,#0x2    ! {$lp}
    2f94:	ef fc       	addi10.sp #-4
    2f96:	49 00 45 15 	jal b9c0 <UART1_SendByte>
    2f9a:	ec 04       	addi10.sp #0x4
    2f9c:	3b ff fc 84 	lmw.bim $sp,[$sp],$sp,#0x2    ! {$lp}
    2fa0:	dd 9e       	ret5 $lp

00002fa2 <prvInsertBlockIntoFreeList>:
    2fa2:	3e 2f ae 60 	addi.gp $r2,#-20896
    2fa6:	d5 02       	j8 2faa <prvInsertBlockIntoFreeList+0x8>
    2fa8:	80 41       	mov55 $r2,$r1
    2faa:	b4 22       	lwi450 $r1,[$r2]
    2fac:	e2 20       	slt45 $r1,$r0
    2fae:	e9 fd       	bnezs8 2fa8 <prvInsertBlockIntoFreeList+0x6>
    2fb0:	a0 d4       	lwi333 $r3,[$r2+#0x10]
    2fb2:	99 53       	add333 $r5,$r2,$r3
    2fb4:	d8 05       	bnes38 $r0,2fbe <prvInsertBlockIntoFreeList+0x1c>
    2fb6:	a0 04       	lwi333 $r0,[$r0+#0x10]
    2fb8:	88 60       	add45 $r3,$r0
    2fba:	a8 d4       	swi333 $r3,[$r2+#0x10]
    2fbc:	80 02       	mov55 $r0,$r2
    2fbe:	a0 c4       	lwi333 $r3,[$r0+#0x10]
    2fc0:	99 43       	add333 $r5,$r0,$r3
    2fc2:	d9 0e       	bnes38 $r1,2fde <prvInsertBlockIntoFreeList+0x3c>
    2fc4:	3c 4d eb 97 	lwi.gp $r4,[+#-20900]
    2fc8:	4c 12 00 09 	beq $r1,$r4,2fda <prvInsertBlockIntoFreeList+0x38>
    2fcc:	a0 4c       	lwi333 $r1,[$r1+#0x10]
    2fce:	88 61       	add45 $r3,$r1
    2fd0:	a8 c4       	swi333 $r3,[$r0+#0x10]
    2fd2:	b4 22       	lwi450 $r1,[$r2]
    2fd4:	b4 21       	lwi450 $r1,[$r1]
    2fd6:	b6 20       	swi450 $r1,[$r0]
    2fd8:	d5 04       	j8 2fe0 <prvInsertBlockIntoFreeList+0x3e>
    2fda:	b6 80       	swi450 $r4,[$r0]
    2fdc:	d5 02       	j8 2fe0 <prvInsertBlockIntoFreeList+0x3e>
    2fde:	b6 20       	swi450 $r1,[$r0]
    2fe0:	4c 20 00 03 	beq $r2,$r0,2fe6 <prvInsertBlockIntoFreeList+0x44>
    2fe4:	b6 02       	swi450 $r0,[$r2]
    2fe6:	dd 9e       	ret5 $lp

00002fe8 <pvPortMalloc>:
    2fe8:	3a 6f a0 bc 	smw.adm $r6,[$sp],$r8,#0x2    ! {$r6~$r8, $lp}
    2fec:	80 e0       	mov55 $r7,$r0
    2fee:	3c 0d eb 97 	lwi.gp $r0,[+#-20900]
    2ff2:	c8 08       	bnez38 $r0,3002 <pvPortMalloc+0x1a>
    2ff4:	64 02 00 02 	mfsr $r0,$psw
    2ff8:	3c 0f eb a2 	swi.gp $r0,[+#-20856]
    2ffc:	49 00 24 1c 	jal 7834 <GIE_DISABLE>
    3000:	d5 00       	j8 3000 <pvPortMalloc+0x18>
    3002:	49 00 04 c7 	jal 3990 <vTaskSuspendAll>
    3006:	3c 0d eb 94 	lwi.gp $r0,[+#-20912]
    300a:	fe 3e       	and33 $r0,$r7
    300c:	c8 40       	bnez38 $r0,308c <pvPortMalloc+0xa4>
    300e:	c7 08       	beqz38 $r7,301e <pvPortMalloc+0x36>
    3010:	8c f4       	addi45 $r7,#0x14
    3012:	54 03 80 03 	andi $r0,$r7,#0x3
    3016:	c0 04       	beqz38 $r0,301e <pvPortMalloc+0x36>
    3018:	66 73 80 03 	bitci $r7,$r7,#0x3
    301c:	8c e4       	addi45 $r7,#0x4
    301e:	c7 39       	beqz38 $r7,3090 <pvPortMalloc+0xa8>
    3020:	3c 0d eb 96 	lwi.gp $r0,[+#-20904]
    3024:	e2 07       	slt45 $r0,$r7
    3026:	e9 37       	bnezs8 3094 <pvPortMalloc+0xac>
    3028:	3e 1f ae 60 	addi.gp $r1,#-20896
    302c:	b4 c1       	lwi450 $r6,[$r1]
    302e:	d5 03       	j8 3034 <pvPortMalloc+0x4c>
    3030:	80 26       	mov55 $r1,$r6
    3032:	80 c0       	mov55 $r6,$r0
    3034:	a0 34       	lwi333 $r0,[$r6+#0x10]
    3036:	e2 07       	slt45 $r0,$r7
    3038:	e8 03       	beqzs8 303e <pvPortMalloc+0x56>
    303a:	b4 06       	lwi450 $r0,[$r6]
    303c:	c8 fa       	bnez38 $r0,3030 <pvPortMalloc+0x48>
    303e:	3c 0d eb 97 	lwi.gp $r0,[+#-20900]
    3042:	4c 60 00 2b 	beq $r6,$r0,3098 <pvPortMalloc+0xb0>
    3046:	b5 01       	lwi450 $r8,[$r1]
    3048:	8d 14       	addi45 $r8,#0x14
    304a:	b4 06       	lwi450 $r0,[$r6]
    304c:	b6 01       	swi450 $r0,[$r1]
    304e:	84 00       	movi55 $r0,#0x0
    3050:	a8 33       	swi333 $r0,[$r6+#0xc]
    3052:	a0 74       	lwi333 $r1,[$r6+#0x10]
    3054:	8a 27       	sub45 $r1,$r7
    3056:	5c f0 80 29 	slti $r15,$r1,#0x29
    305a:	e9 06       	bnezs8 3066 <pvPortMalloc+0x7e>
    305c:	98 37       	add333 $r0,$r6,$r7
    305e:	a8 44       	swi333 $r1,[$r0+#0x10]
    3060:	a9 f4       	swi333 $r7,[$r6+#0x10]
    3062:	49 ff ff a0 	jal 2fa2 <prvInsertBlockIntoFreeList>
    3066:	a0 b4       	lwi333 $r2,[$r6+#0x10]
    3068:	3c 0d eb 96 	lwi.gp $r0,[+#-20904]
    306c:	8a 02       	sub45 $r0,$r2
    306e:	3c 0f eb 96 	swi.gp $r0,[+#-20904]
    3072:	3c 1d eb 95 	lwi.gp $r1,[+#-20908]
    3076:	e2 01       	slt45 $r0,$r1
    3078:	e8 03       	beqzs8 307e <pvPortMalloc+0x96>
    307a:	3c 0f eb 95 	swi.gp $r0,[+#-20908]
    307e:	3c 0d eb 94 	lwi.gp $r0,[+#-20912]
    3082:	fe 17       	or33 $r0,$r2
    3084:	a8 34       	swi333 $r0,[$r6+#0x10]
    3086:	84 00       	movi55 $r0,#0x0
    3088:	b6 06       	swi450 $r0,[$r6]
    308a:	d5 08       	j8 309a <pvPortMalloc+0xb2>
    308c:	85 00       	movi55 $r8,#0x0
    308e:	d5 06       	j8 309a <pvPortMalloc+0xb2>
    3090:	85 00       	movi55 $r8,#0x0
    3092:	d5 04       	j8 309a <pvPortMalloc+0xb2>
    3094:	85 00       	movi55 $r8,#0x0
    3096:	d5 02       	j8 309a <pvPortMalloc+0xb2>
    3098:	85 00       	movi55 $r8,#0x0
    309a:	49 00 05 1b 	jal 3ad0 <xTaskResumeAll>
    309e:	80 08       	mov55 $r0,$r8
    30a0:	3a 6f a0 84 	lmw.bim $r6,[$sp],$r8,#0x2    ! {$r6~$r8, $lp}
    30a4:	dd 9e       	ret5 $lp

000030a6 <pvPortMallocFromEnd>:
    30a6:	3a 6f a0 bc 	smw.adm $r6,[$sp],$r8,#0x2    ! {$r6~$r8, $lp}
    30aa:	80 e0       	mov55 $r7,$r0
    30ac:	3c 0d eb 97 	lwi.gp $r0,[+#-20900]
    30b0:	c8 08       	bnez38 $r0,30c0 <pvPortMallocFromEnd+0x1a>
    30b2:	64 02 00 02 	mfsr $r0,$psw
    30b6:	3c 0f eb a2 	swi.gp $r0,[+#-20856]
    30ba:	49 00 23 bd 	jal 7834 <GIE_DISABLE>
    30be:	d5 00       	j8 30be <pvPortMallocFromEnd+0x18>
    30c0:	49 00 04 68 	jal 3990 <vTaskSuspendAll>
    30c4:	3c 0d eb 94 	lwi.gp $r0,[+#-20912]
    30c8:	fe 3e       	and33 $r0,$r7
    30ca:	c8 50       	bnez38 $r0,316a <pvPortMallocFromEnd+0xc4>
    30cc:	c7 08       	beqz38 $r7,30dc <pvPortMallocFromEnd+0x36>
    30ce:	8c f4       	addi45 $r7,#0x14
    30d0:	54 03 80 03 	andi $r0,$r7,#0x3
    30d4:	c0 04       	beqz38 $r0,30dc <pvPortMallocFromEnd+0x36>
    30d6:	66 73 80 03 	bitci $r7,$r7,#0x3
    30da:	8c e4       	addi45 $r7,#0x4
    30dc:	c7 49       	beqz38 $r7,316e <pvPortMallocFromEnd+0xc8>
    30de:	3c 0d eb 96 	lwi.gp $r0,[+#-20904]
    30e2:	e2 07       	slt45 $r0,$r7
    30e4:	e9 47       	bnezs8 3172 <pvPortMallocFromEnd+0xcc>
    30e6:	3e 1f ae 60 	addi.gp $r1,#-20896
    30ea:	b4 c1       	lwi450 $r6,[$r1]
    30ec:	d5 03       	j8 30f2 <pvPortMallocFromEnd+0x4c>
    30ee:	80 26       	mov55 $r1,$r6
    30f0:	80 c5       	mov55 $r6,$r5
    30f2:	b4 a6       	lwi450 $r5,[$r6]
    30f4:	3c 2d eb 97 	lwi.gp $r2,[+#-20900]
    30f8:	da fb       	bnes38 $r2,30ee <pvPortMallocFromEnd+0x48>
    30fa:	a0 34       	lwi333 $r0,[$r6+#0x10]
    30fc:	50 33 80 28 	addi $r3,$r7,#0x28
    3100:	e2 60       	slt45 $r3,$r0
    3102:	e8 0c       	beqzs8 311a <pvPortMallocFromEnd+0x74>
    3104:	88 06       	add45 $r0,$r6
    3106:	8a 07       	sub45 $r0,$r7
    3108:	a9 c4       	swi333 $r7,[$r0+#0x10]
    310a:	b6 40       	swi450 $r2,[$r0]
    310c:	b6 06       	swi450 $r0,[$r6]
    310e:	a0 74       	lwi333 $r1,[$r6+#0x10]
    3110:	8a 27       	sub45 $r1,$r7
    3112:	a8 74       	swi333 $r1,[$r6+#0x10]
    3114:	80 26       	mov55 $r1,$r6
    3116:	80 c0       	mov55 $r6,$r0
    3118:	d5 04       	j8 3120 <pvPortMallocFromEnd+0x7a>
    311a:	e2 07       	slt45 $r0,$r7
    311c:	e8 02       	beqzs8 3120 <pvPortMallocFromEnd+0x7a>
    311e:	80 c2       	mov55 $r6,$r2
    3120:	4c 61 00 2b 	beq $r6,$r2,3176 <pvPortMallocFromEnd+0xd0>
    3124:	b5 01       	lwi450 $r8,[$r1]
    3126:	8d 14       	addi45 $r8,#0x14
    3128:	b4 06       	lwi450 $r0,[$r6]
    312a:	b6 01       	swi450 $r0,[$r1]
    312c:	84 00       	movi55 $r0,#0x0
    312e:	a8 33       	swi333 $r0,[$r6+#0xc]
    3130:	a0 74       	lwi333 $r1,[$r6+#0x10]
    3132:	8a 27       	sub45 $r1,$r7
    3134:	5c f0 80 29 	slti $r15,$r1,#0x29
    3138:	e9 06       	bnezs8 3144 <pvPortMallocFromEnd+0x9e>
    313a:	98 37       	add333 $r0,$r6,$r7
    313c:	a8 44       	swi333 $r1,[$r0+#0x10]
    313e:	a9 f4       	swi333 $r7,[$r6+#0x10]
    3140:	49 ff ff 31 	jal 2fa2 <prvInsertBlockIntoFreeList>
    3144:	a0 b4       	lwi333 $r2,[$r6+#0x10]
    3146:	3c 0d eb 96 	lwi.gp $r0,[+#-20904]
    314a:	8a 02       	sub45 $r0,$r2
    314c:	3c 0f eb 96 	swi.gp $r0,[+#-20904]
    3150:	3c 1d eb 95 	lwi.gp $r1,[+#-20908]
    3154:	e2 01       	slt45 $r0,$r1
    3156:	e8 03       	beqzs8 315c <pvPortMallocFromEnd+0xb6>
    3158:	3c 0f eb 95 	swi.gp $r0,[+#-20908]
    315c:	3c 0d eb 94 	lwi.gp $r0,[+#-20912]
    3160:	fe 17       	or33 $r0,$r2
    3162:	a8 34       	swi333 $r0,[$r6+#0x10]
    3164:	84 00       	movi55 $r0,#0x0
    3166:	b6 06       	swi450 $r0,[$r6]
    3168:	d5 08       	j8 3178 <pvPortMallocFromEnd+0xd2>
    316a:	85 00       	movi55 $r8,#0x0
    316c:	d5 06       	j8 3178 <pvPortMallocFromEnd+0xd2>
    316e:	85 00       	movi55 $r8,#0x0
    3170:	d5 04       	j8 3178 <pvPortMallocFromEnd+0xd2>
    3172:	85 00       	movi55 $r8,#0x0
    3174:	d5 02       	j8 3178 <pvPortMallocFromEnd+0xd2>
    3176:	85 00       	movi55 $r8,#0x0
    3178:	49 00 04 ac 	jal 3ad0 <xTaskResumeAll>
    317c:	80 08       	mov55 $r0,$r8
    317e:	3a 6f a0 84 	lmw.bim $r6,[$sp],$r8,#0x2    ! {$r6~$r8, $lp}
    3182:	dd 9e       	ret5 $lp

00003184 <vPortFree>:
    3184:	c0 34       	beqz38 $r0,31ec <vPortFree+0x68>
    3186:	3a 6f a0 bc 	smw.adm $r6,[$sp],$r8,#0x2    ! {$r6~$r8, $lp}
    318a:	80 20       	mov55 $r1,$r0
    318c:	50 70 7f ec 	addi $r7,$r0,#-20
    3190:	a0 3c       	lwi333 $r0,[$r7+#0x10]
    3192:	3c 2d eb 94 	lwi.gp $r2,[+#-20912]
    3196:	40 40 08 02 	and $r4,$r0,$r2
    319a:	cc 08       	bnez38 $r4,31aa <vPortFree+0x26>
    319c:	64 02 00 02 	mfsr $r0,$psw
    31a0:	3c 0f eb a2 	swi.gp $r0,[+#-20856]
    31a4:	49 00 23 48 	jal 7834 <GIE_DISABLE>
    31a8:	d5 00       	j8 31a8 <vPortFree+0x24>
    31aa:	04 30 ff fb 	lwi $r3,[$r1+#-20]
    31ae:	c3 08       	beqz38 $r3,31be <vPortFree+0x3a>
    31b0:	64 02 00 02 	mfsr $r0,$psw
    31b4:	3c 0f eb a2 	swi.gp $r0,[+#-20856]
    31b8:	49 00 23 3e 	jal 7834 <GIE_DISABLE>
    31bc:	d5 00       	j8 31bc <vPortFree+0x38>
    31be:	c4 15       	beqz38 $r4,31e8 <vPortFree+0x64>
    31c0:	cb 14       	bnez38 $r3,31e8 <vPortFree+0x64>
    31c2:	50 60 ff ec 	addi $r6,$r1,#-20
    31c6:	40 20 08 12 	bitc $r2,$r0,$r2
    31ca:	14 20 ff ff 	swi $r2,[$r1+#-4]
    31ce:	49 00 03 e1 	jal 3990 <vTaskSuspendAll>
    31d2:	a0 74       	lwi333 $r1,[$r6+#0x10]
    31d4:	3c 0d eb 96 	lwi.gp $r0,[+#-20904]
    31d8:	88 20       	add45 $r1,$r0
    31da:	3c 1f eb 96 	swi.gp $r1,[+#-20904]
    31de:	80 07       	mov55 $r0,$r7
    31e0:	49 ff fe e1 	jal 2fa2 <prvInsertBlockIntoFreeList>
    31e4:	49 00 04 76 	jal 3ad0 <xTaskResumeAll>
    31e8:	3a 6f a0 84 	lmw.bim $r6,[$sp],$r8,#0x2    ! {$r6~$r8, $lp}
    31ec:	dd 9e       	ret5 $lp

000031ee <vPortDefineHeapRegions>:
    31ee:	3b ff fc bc 	smw.adm $sp,[$sp],$sp,#0x2    ! {$lp}
    31f2:	ef fc       	addi10.sp #-4
    31f4:	3e 1f ae 74 	addi.gp $r1,#-20876
    31f8:	84 40       	movi55 $r2,#0x0
    31fa:	b6 41       	swi450 $r2,[$r1]
    31fc:	a8 8b       	swi333 $r2,[$r1+#0xc]
    31fe:	a8 89       	swi333 $r2,[$r1+#0x4]
    3200:	a8 8a       	swi333 $r2,[$r1+#0x8]
    3202:	a8 8c       	swi333 $r2,[$r1+#0x10]
    3204:	3c 1d eb 97 	lwi.gp $r1,[+#-20900]
    3208:	c1 46       	beqz38 $r1,3294 <vPortDefineHeapRegions+0xa6>
    320a:	64 02 00 02 	mfsr $r0,$psw
    320e:	3c 0f eb a2 	swi.gp $r0,[+#-20856]
    3212:	49 00 23 11 	jal 7834 <GIE_DISABLE>
    3216:	d5 00       	j8 3216 <vPortDefineHeapRegions+0x28>
    3218:	b4 42       	lwi450 $r2,[$r2]
    321a:	54 51 00 03 	andi $r5,$r2,#0x3
    321e:	c5 07       	beqz38 $r5,322c <vPortDefineHeapRegions+0x3e>
    3220:	9d 53       	addi333 $r5,$r2,#0x3
    3222:	66 52 80 03 	bitci $r5,$r5,#0x3
    3226:	8a 45       	sub45 $r2,$r5
    3228:	88 22       	add45 $r1,$r2
    322a:	80 45       	mov55 $r2,$r5
    322c:	80 a2       	mov55 $r5,$r2
    322e:	cc 08       	bnez38 $r4,323e <vPortDefineHeapRegions+0x50>
    3230:	3f 0f ae 60 	addi.gp $r16,#-20896
    3234:	b6 50       	swi450 $r2,[$r16]
    3236:	86 20       	movi55 $r17,#0x0
    3238:	15 18 00 04 	swi $r17,[$r16+#0x10]
    323c:	d5 15       	j8 3266 <vPortDefineHeapRegions+0x78>
    323e:	3c fd eb 97 	lwi.gp $r15,[+#-20900]
    3242:	e9 08       	bnezs8 3252 <vPortDefineHeapRegions+0x64>
    3244:	64 02 00 02 	mfsr $r0,$psw
    3248:	3c 0f eb a2 	swi.gp $r0,[+#-20856]
    324c:	49 00 22 f4 	jal 7834 <GIE_DISABLE>
    3250:	d5 00       	j8 3250 <vPortDefineHeapRegions+0x62>
    3252:	40 f7 88 06 	slt $r15,$r15,$r2
    3256:	e9 08       	bnezs8 3266 <vPortDefineHeapRegions+0x78>
    3258:	64 02 00 02 	mfsr $r0,$psw
    325c:	3c 0f eb a2 	swi.gp $r0,[+#-20856]
    3260:	49 00 22 ea 	jal 7834 <GIE_DISABLE>
    3264:	d5 00       	j8 3264 <vPortDefineHeapRegions+0x76>
    3266:	3c fd eb 97 	lwi.gp $r15,[+#-20900]
    326a:	88 22       	add45 $r1,$r2
    326c:	8e 34       	subi45 $r1,#0x14
    326e:	66 10 80 03 	bitci $r1,$r1,#0x3
    3272:	3c 1f eb 97 	swi.gp $r1,[+#-20900]
    3276:	86 20       	movi55 $r17,#0x0
    3278:	15 10 80 04 	swi $r17,[$r1+#0x10]
    327c:	b7 a1       	swi450 $r17,[$r1]
    327e:	9a 8a       	sub333 $r2,$r1,$r2
    3280:	a8 ac       	swi333 $r2,[$r5+#0x10]
    3282:	b6 25       	swi450 $r1,[$r5]
    3284:	e8 02       	beqzs8 3288 <vPortDefineHeapRegions+0x9a>
    3286:	b6 af       	swi450 $r5,[$r15]
    3288:	a0 6c       	lwi333 $r1,[$r5+#0x10]
    328a:	88 61       	add45 $r3,$r1
    328c:	8c 81       	addi45 $r4,#0x1
    328e:	94 a3       	slli333 $r2,$r4,#0x3
    3290:	88 40       	add45 $r2,$r0
    3292:	d5 04       	j8 329a <vPortDefineHeapRegions+0xac>
    3294:	80 40       	mov55 $r2,$r0
    3296:	84 80       	movi55 $r4,#0x0
    3298:	84 60       	movi55 $r3,#0x0
    329a:	a0 51       	lwi333 $r1,[$r2+#0x4]
    329c:	c9 be       	bnez38 $r1,3218 <vPortDefineHeapRegions+0x2a>
    329e:	3c 3f eb 95 	swi.gp $r3,[+#-20908]
    32a2:	3c 3f eb 96 	swi.gp $r3,[+#-20904]
    32a6:	cb 08       	bnez38 $r3,32b6 <vPortDefineHeapRegions+0xc8>
    32a8:	64 02 00 02 	mfsr $r0,$psw
    32ac:	3c 0f eb a2 	swi.gp $r0,[+#-20856]
    32b0:	49 00 22 c2 	jal 7834 <GIE_DISABLE>
    32b4:	d5 00       	j8 32b4 <vPortDefineHeapRegions+0xc6>
    32b6:	46 08 00 00 	sethi $r0,#0x80000
    32ba:	3c 0f eb 94 	swi.gp $r0,[+#-20912]
    32be:	ec 04       	addi10.sp #0x4
    32c0:	3b ff fc 84 	lmw.bim $sp,[$sp],$sp,#0x2    ! {$lp}
    32c4:	dd 9e       	ret5 $lp

000032c6 <GetIPSR>:
    32c6:	64 02 00 02 	mfsr $r0,$psw
    32ca:	92 10       	srli45 $r0,#0x10
    32cc:	96 17       	fexti33 $r0,#0x2
    32ce:	5a 08 07 04 	bnec $r0,#0x7,32d6 <GetIPSR+0x10>
    32d2:	84 00       	movi55 $r0,#0x0
    32d4:	dd 9e       	ret5 $lp
    32d6:	84 01       	movi55 $r0,#0x1
    32d8:	dd 9e       	ret5 $lp

000032da <GetCurrentTaskHandle>:
    32da:	3b ff fc bc 	smw.adm $sp,[$sp],$sp,#0x2    ! {$lp}
    32de:	ef fc       	addi10.sp #-4
    32e0:	49 ff ff f3 	jal 32c6 <GetIPSR>
    32e4:	c8 04       	bnez38 $r0,32ec <GetCurrentTaskHandle+0x12>
    32e6:	49 00 05 2a 	jal 3d3a <xTaskGetCurrentTaskHandle>
    32ea:	d5 02       	j8 32ee <GetCurrentTaskHandle+0x14>
    32ec:	84 00       	movi55 $r0,#0x0
    32ee:	ec 04       	addi10.sp #0x4
    32f0:	3b ff fc 84 	lmw.bim $sp,[$sp],$sp,#0x2    ! {$lp}
    32f4:	dd 9e       	ret5 $lp

000032f6 <DeleteTaskMallocMem>:
    32f6:	3a 6f a0 bc 	smw.adm $r6,[$sp],$r8,#0x2    ! {$r6~$r8, $lp}
    32fa:	80 e0       	mov55 $r7,$r0
    32fc:	c8 05       	bnez38 $r0,3306 <DeleteTaskMallocMem+0x10>
    32fe:	49 ff ff ee 	jal 32da <GetCurrentTaskHandle>
    3302:	80 e0       	mov55 $r7,$r0
    3304:	c0 12       	beqz38 $r0,3328 <DeleteTaskMallocMem+0x32>
    3306:	3e 1f ae 74 	addi.gp $r1,#-20876
    330a:	a1 89       	lwi333 $r6,[$r1+#0x4]
    330c:	a1 4b       	lwi333 $r5,[$r1+#0xc]
    330e:	df 09       	bnes38 $r7,3320 <DeleteTaskMallocMem+0x2a>
    3310:	a0 0a       	lwi333 $r0,[$r1+#0x8]
    3312:	a9 81       	swi333 $r6,[$r0+#0x4]
    3314:	c6 02       	beqz38 $r6,3318 <DeleteTaskMallocMem+0x22>
    3316:	a8 32       	swi333 $r0,[$r6+#0x8]
    3318:	50 00 80 14 	addi $r0,$r1,#0x14
    331c:	49 ff ff 34 	jal 3184 <vPortFree>
    3320:	c6 04       	beqz38 $r6,3328 <DeleteTaskMallocMem+0x32>
    3322:	80 26       	mov55 $r1,$r6
    3324:	a1 b1       	lwi333 $r6,[$r6+#0x4]
    3326:	d5 f3       	j8 330c <DeleteTaskMallocMem+0x16>
    3328:	3a 6f a0 84 	lmw.bim $r6,[$sp],$r8,#0x2    ! {$r6~$r8, $lp}
    332c:	dd 9e       	ret5 $lp

0000332e <vListInitialise>:
    332e:	50 10 00 08 	addi $r1,$r0,#0x8
    3332:	a8 41       	swi333 $r1,[$r0+#0x4]
    3334:	84 5f       	movi55 $r2,#-1
    3336:	a8 82       	swi333 $r2,[$r0+#0x8]
    3338:	a8 43       	swi333 $r1,[$r0+#0xc]
    333a:	a8 44       	swi333 $r1,[$r0+#0x10]
    333c:	84 20       	movi55 $r1,#0x0
    333e:	b6 20       	swi450 $r1,[$r0]
    3340:	dd 9e       	ret5 $lp

00003342 <vListInitialiseItem>:
    3342:	84 20       	movi55 $r1,#0x0
    3344:	a8 44       	swi333 $r1,[$r0+#0x10]
    3346:	dd 9e       	ret5 $lp

00003348 <vListInsertEnd>:
    3348:	a0 81       	lwi333 $r2,[$r0+#0x4]
    334a:	a8 89       	swi333 $r2,[$r1+#0x4]
    334c:	a0 d2       	lwi333 $r3,[$r2+#0x8]
    334e:	a8 ca       	swi333 $r3,[$r1+#0x8]
    3350:	a0 d2       	lwi333 $r3,[$r2+#0x8]
    3352:	a8 59       	swi333 $r1,[$r3+#0x4]
    3354:	a8 52       	swi333 $r1,[$r2+#0x8]
    3356:	a8 0c       	swi333 $r0,[$r1+#0x10]
    3358:	b4 20       	lwi450 $r1,[$r0]
    335a:	8c 21       	addi45 $r1,#0x1
    335c:	b6 20       	swi450 $r1,[$r0]
    335e:	dd 9e       	ret5 $lp

00003360 <uxListRemove>:
    3360:	a0 44       	lwi333 $r1,[$r0+#0x10]
    3362:	a0 81       	lwi333 $r2,[$r0+#0x4]
    3364:	a0 c2       	lwi333 $r3,[$r0+#0x8]
    3366:	a8 d2       	swi333 $r3,[$r2+#0x8]
    3368:	a0 82       	lwi333 $r2,[$r0+#0x8]
    336a:	a0 c1       	lwi333 $r3,[$r0+#0x4]
    336c:	a8 d1       	swi333 $r3,[$r2+#0x4]
    336e:	a1 49       	lwi333 $r5,[$r1+#0x4]
    3370:	d8 03       	bnes38 $r0,3376 <uxListRemove+0x16>
    3372:	a0 82       	lwi333 $r2,[$r0+#0x8]
    3374:	a8 89       	swi333 $r2,[$r1+#0x4]
    3376:	84 40       	movi55 $r2,#0x0
    3378:	a8 84       	swi333 $r2,[$r0+#0x10]
    337a:	b4 01       	lwi450 $r0,[$r1]
    337c:	8e 01       	subi45 $r0,#0x1
    337e:	b6 01       	swi450 $r0,[$r1]
    3380:	dd 9e       	ret5 $lp

00003382 <CtxRestore>:
    3382:	3e 0f af e4 	addi.gp $r0,#-20508
    3386:	b4 20       	lwi450 $r1,[$r0]
    3388:	05 f0 80 00 	lwi $sp,[$r1+#0x0]
    338c:	3e 0f af e4 	addi.gp $r0,#-20508
    3390:	b4 20       	lwi450 $r1,[$r0]
    3392:	04 00 80 0c 	lwi $r0,[$r1+#0x30]
    3396:	64 08 c4 03 	mtsr $r0,$sp_bound
    339a:	84 05       	movi55 $r0,#0x5
    339c:	64 08 c0 03 	mtsr $r0,$hsp_ctl
    33a0:	34 0f 90 02 	fldi.bi $fd0,[$sp],#0x8
    33a4:	34 1f 90 02 	fldi.bi $fd1,[$sp],#0x8
    33a8:	34 2f 90 02 	fldi.bi $fd2,[$sp],#0x8
    33ac:	34 3f 90 02 	fldi.bi $fd3,[$sp],#0x8
    33b0:	34 4f 90 02 	fldi.bi $fd4,[$sp],#0x8
    33b4:	34 5f 90 02 	fldi.bi $fd5,[$sp],#0x8
    33b8:	34 6f 90 02 	fldi.bi $fd6,[$sp],#0x8
    33bc:	34 7f 90 02 	fldi.bi $fd7,[$sp],#0x8
    33c0:	34 8f 90 02 	fldi.bi $fd8,[$sp],#0x8
    33c4:	34 9f 90 02 	fldi.bi $fd9,[$sp],#0x8
    33c8:	34 af 90 02 	fldi.bi $fd10,[$sp],#0x8
    33cc:	34 bf 90 02 	fldi.bi $fd11,[$sp],#0x8
    33d0:	34 cf 90 02 	fldi.bi $fd12,[$sp],#0x8
    33d4:	34 df 90 02 	fldi.bi $fd13,[$sp],#0x8
    33d8:	34 ef 90 02 	fldi.bi $fd14,[$sp],#0x8
    33dc:	34 ff 90 02 	fldi.bi $fd15,[$sp],#0x8
    33e0:	05 ff 80 00 	lwi $sp,[$sp+#0x0]
    33e4:	3a 0f 88 04 	lmw.bim $r0,[$sp],$r2,#0x0    ! {$r0~$r2}
    33e8:	64 12 a4 03 	mtsr $r1,$ipc
    33ec:	64 22 04 03 	mtsr $r2,$ipsw
    33f0:	3a 2f 90 04 	lmw.bim $r2,[$sp],$r4,#0x0    ! {$r2~$r4}
    33f4:	42 2c 80 21 	mtusr $r2,$lb
    33f8:	42 3d 00 21 	mtusr $r3,$le
    33fc:	42 4d 80 21 	mtusr $r4,$lc
    3400:	3a 0f 80 04 	lmw.bim $r0,[$sp],$r0,#0x0    ! {$r0}
    3404:	42 0e 80 21 	mtusr $r0,$ifc_lp
    3408:	3a 2f ef 84 	lmw.bim $r2,[$sp],$p1,#0xe    ! {$r2~$p1, $fp, $gp, $lp}
    340c:	3a 0f 84 04 	lmw.bim $r0,[$sp],$r1,#0x0    ! {$r0~$r1}
    3410:	64 00 00 04 	iret

00003414 <vPortEndScheduler>:
    3414:	3b ff fc bc 	smw.adm $sp,[$sp],$sp,#0x2    ! {$lp}
    3418:	ef fc       	addi10.sp #-4
    341a:	44 00 e5 0c 	movi $r0,#0xe50c
    341e:	49 00 51 d2 	jal d7c2 <puts>
    3422:	84 00       	movi55 $r0,#0x0
    3424:	49 00 02 48 	jal 38b4 <vTaskDelete>
    3428:	ec 04       	addi10.sp #0x4
    342a:	3b ff fc 84 	lmw.bim $sp,[$sp],$sp,#0x2    ! {$lp}
    342e:	dd 9e       	ret5 $lp

00003430 <pxPortInitialiseStack>:
    3430:	46 30 10 10 	sethi $r3,#0x1010
    3434:	50 31 81 01 	addi $r3,$r3,#0x101
    3438:	14 30 7f ff 	swi $r3,[$r0+#-4]
    343c:	14 20 7f fe 	swi $r2,[$r0+#-8]
    3440:	44 20 34 14 	movi $r2,#0x3414
    3444:	14 20 7f fd 	swi $r2,[$r0+#-12]
    3448:	3e 28 00 00 	addi.gp $r2,#0x0
    344c:	14 20 7f fc 	swi $r2,[$r0+#-16]
    3450:	50 30 7f ec 	addi $r3,$r0,#-20
    3454:	46 21 c1 c1 	sethi $r2,#0x1c1c1
    3458:	50 21 0c 1c 	addi $r2,$r2,#0xc1c
    345c:	14 20 7f fb 	swi $r2,[$r0+#-20]
    3460:	fa 4b       	movpi45 $r2,#0x1b
    3462:	d5 09       	j8 3474 <pxPortInitialiseStack+0x44>
    3464:	8e 64       	subi45 $r3,#0x4
    3466:	46 00 10 10 	sethi $r0,#0x1010
    346a:	50 00 01 01 	addi $r0,$r0,#0x101
    346e:	fe 14       	mul33 $r0,$r2
    3470:	b6 03       	swi450 $r0,[$r3]
    3472:	8e 41       	subi45 $r2,#0x1
    3474:	e4 42       	sltsi45 $r2,#0x2
    3476:	e8 f7       	beqzs8 3464 <pxPortInitialiseStack+0x34>
    3478:	46 02 82 82 	sethi $r0,#0x28282
    347c:	50 00 08 28 	addi $r0,$r0,#0x828
    3480:	14 01 ff ff 	swi $r0,[$r3+#-4]
    3484:	84 00       	movi55 $r0,#0x0
    3486:	14 01 ff fe 	swi $r0,[$r3+#-8]
    348a:	14 01 ff fd 	swi $r0,[$r3+#-12]
    348e:	14 01 ff fc 	swi $r0,[$r3+#-16]
    3492:	64 22 00 02 	mfsr $r2,$psw
    3496:	44 0f 7f fe 	movi $r0,#-32770
    349a:	fe 16       	and33 $r0,$r2
    349c:	58 00 00 01 	ori $r0,$r0,#0x1
    34a0:	14 01 ff fb 	swi $r0,[$r3+#-20]
    34a4:	14 11 ff fa 	swi $r1,[$r3+#-24]
    34a8:	50 11 ff e4 	addi $r1,$r3,#-28
    34ac:	64 02 00 02 	mfsr $r0,$psw
    34b0:	58 00 00 02 	ori $r0,$r0,#0x2
    34b4:	14 01 ff f9 	swi $r0,[$r3+#-28]
    34b8:	50 01 ff e0 	addi $r0,$r3,#-32
    34bc:	14 11 ff f8 	swi $r1,[$r3+#-32]
    34c0:	54 20 00 07 	andi $r2,$r0,#0x7
    34c4:	c2 05       	beqz38 $r2,34ce <pxPortInitialiseStack+0x9e>
    34c6:	50 01 ff dc 	addi $r0,$r3,#-36
    34ca:	14 11 ff f7 	swi $r1,[$r3+#-36]
    34ce:	44 20 00 43 	movi $r2,#0x43
    34d2:	d5 09       	j8 34e4 <pxPortInitialiseStack+0xb4>
    34d4:	8e 04       	subi45 $r0,#0x4
    34d6:	46 10 10 10 	sethi $r1,#0x1010
    34da:	50 10 81 01 	addi $r1,$r1,#0x101
    34de:	fe 54       	mul33 $r1,$r2
    34e0:	b6 20       	swi450 $r1,[$r0]
    34e2:	8e 41       	subi45 $r2,#0x1
    34e4:	5e f1 00 24 	sltsi $r15,$r2,#0x24
    34e8:	e8 f6       	beqzs8 34d4 <pxPortInitialiseStack+0xa4>
    34ea:	dd 9e       	ret5 $lp

000034ec <xPortStartScheduler>:
    34ec:	3b ff fc bc 	smw.adm $sp,[$sp],$sp,#0x2    ! {$lp}
    34f0:	ef fc       	addi10.sp #-4
    34f2:	49 00 3f 00 	jal b2f2 <SysTickInit>
    34f6:	49 00 00 49 	jal 3588 <vPortISRStartFirstTask>
    34fa:	84 00       	movi55 $r0,#0x0
    34fc:	ec 04       	addi10.sp #0x4
    34fe:	3b ff fc 84 	lmw.bim $sp,[$sp],$sp,#0x2    ! {$lp}
    3502:	dd 9e       	ret5 $lp

00003504 <vPortYield>:
    3504:	44 01 00 00 	movi $r0,#0x10000
    3508:	64 03 20 03 	mtsr $r0,$int_pend
    350c:	64 00 00 09 	isb
    3510:	dd 9e       	ret5 $lp

00003512 <vPortEnterCritical>:
    3512:	3b ff fc bc 	smw.adm $sp,[$sp],$sp,#0x2    ! {$lp}
    3516:	ef f4       	addi10.sp #-12
    3518:	64 02 00 02 	mfsr $r0,$psw
    351c:	f0 81       	swi37.sp $r0,[+#0x4]
    351e:	49 00 21 8b 	jal 7834 <GIE_DISABLE>
    3522:	3c 0d eb a4 	lwi.gp $r0,[+#-20848]
    3526:	c8 04       	bnez38 $r0,352e <vPortEnterCritical+0x1c>
    3528:	f0 01       	lwi37.sp $r0,[+#0x4]
    352a:	3c 0f eb a3 	swi.gp $r0,[+#-20852]
    352e:	3c 0d eb a4 	lwi.gp $r0,[+#-20848]
    3532:	8c 01       	addi45 $r0,#0x1
    3534:	3c 0f eb a4 	swi.gp $r0,[+#-20848]
    3538:	ec 0c       	addi10.sp #0xc
    353a:	3b ff fc 84 	lmw.bim $sp,[$sp],$sp,#0x2    ! {$lp}
    353e:	dd 9e       	ret5 $lp

00003540 <vPortExitCritical>:
    3540:	3c 0d eb a4 	lwi.gp $r0,[+#-20848]
    3544:	8e 01       	subi45 $r0,#0x1
    3546:	3c 0f eb a4 	swi.gp $r0,[+#-20848]
    354a:	3c 0d eb a4 	lwi.gp $r0,[+#-20848]
    354e:	c8 0d       	bnez38 $r0,3568 <vPortExitCritical+0x28>
    3550:	3c 0d eb a3 	lwi.gp $r0,[+#-20852]
    3554:	96 04       	xlsb33 $r0,$r0
    3556:	c0 09       	beqz38 $r0,3568 <vPortExitCritical+0x28>
    3558:	3b ff fc bc 	smw.adm $sp,[$sp],$sp,#0x2    ! {$lp}
    355c:	ef fc       	addi10.sp #-4
    355e:	49 00 21 66 	jal 782a <GIE_ENABLE>
    3562:	ec 04       	addi10.sp #0x4
    3564:	3b ff fc 84 	lmw.bim $sp,[$sp],$sp,#0x2    ! {$lp}
    3568:	dd 9e       	ret5 $lp

0000356a <ulPortSetInterruptMask>:
    356a:	64 02 00 02 	mfsr $r0,$psw
    356e:	44 18 ff ff 	movi $r1,#-458753
    3572:	fe 46       	and33 $r1,$r0
    3574:	64 12 00 03 	mtsr $r1,$psw
    3578:	64 00 00 09 	isb
    357c:	dd 9e       	ret5 $lp

0000357e <vPortClearInterruptMask>:
    357e:	64 02 00 03 	mtsr $r0,$psw
    3582:	64 00 00 09 	isb
    3586:	dd 9e       	ret5 $lp

00003588 <vPortISRStartFirstTask>:
    3588:	3b ff fc bc 	smw.adm $sp,[$sp],$sp,#0x2    ! {$lp}
    358c:	ef fc       	addi10.sp #-4
    358e:	49 ff fe fa 	jal 3382 <CtxRestore>
    3592:	ec 04       	addi10.sp #0x4
    3594:	3b ff fc 84 	lmw.bim $sp,[$sp],$sp,#0x2    ! {$lp}
    3598:	dd 9e       	ret5 $lp

0000359a <xQueueGenericReset>:
    359a:	3a 6f a0 bc 	smw.adm $r6,[$sp],$r8,#0x2    ! {$r6~$r8, $lp}
    359e:	80 c0       	mov55 $r6,$r0
    35a0:	c8 08       	bnez38 $r0,35b0 <xQueueGenericReset+0x16>
    35a2:	64 02 00 02 	mfsr $r0,$psw
    35a6:	3c 0f eb a2 	swi.gp $r0,[+#-20856]
    35aa:	49 00 21 45 	jal 7834 <GIE_DISABLE>
    35ae:	d5 00       	j8 35ae <xQueueGenericReset+0x14>
    35b0:	80 e1       	mov55 $r7,$r1
    35b2:	49 ff ff b0 	jal 3512 <vPortEnterCritical>
    35b6:	b4 06       	lwi450 $r0,[$r6]
    35b8:	04 23 00 0f 	lwi $r2,[$r6+#0x3c]
    35bc:	04 33 00 10 	lwi $r3,[$r6+#0x40]
    35c0:	80 20       	mov55 $r1,$r0
    35c2:	42 11 0c 73 	maddr32 $r1,$r2,$r3
    35c6:	a8 71       	swi333 $r1,[$r6+#0x4]
    35c8:	84 20       	movi55 $r1,#0x0
    35ca:	14 13 00 0e 	swi $r1,[$r6+#0x38]
    35ce:	a8 32       	swi333 $r0,[$r6+#0x8]
    35d0:	8e 41       	subi45 $r2,#0x1
    35d2:	42 01 88 73 	maddr32 $r0,$r3,$r2
    35d6:	a8 33       	swi333 $r0,[$r6+#0xc]
    35d8:	84 1f       	movi55 $r0,#-1
    35da:	14 03 00 11 	swi $r0,[$r6+#0x44]
    35de:	14 03 00 12 	swi $r0,[$r6+#0x48]
    35e2:	cf 0c       	bnez38 $r7,35fa <xQueueGenericReset+0x60>
    35e4:	a0 34       	lwi333 $r0,[$r6+#0x10]
    35e6:	c0 12       	beqz38 $r0,360a <xQueueGenericReset+0x70>
    35e8:	50 03 00 10 	addi $r0,$r6,#0x10
    35ec:	49 00 03 68 	jal 3cbc <xTaskRemoveFromEventList>
    35f0:	5a 08 01 0d 	bnec $r0,#0x1,360a <xQueueGenericReset+0x70>
    35f4:	49 ff ff 88 	jal 3504 <vPortYield>
    35f8:	d5 09       	j8 360a <xQueueGenericReset+0x70>
    35fa:	50 03 00 10 	addi $r0,$r6,#0x10
    35fe:	49 ff fe 98 	jal 332e <vListInitialise>
    3602:	50 03 00 24 	addi $r0,$r6,#0x24
    3606:	49 ff fe 94 	jal 332e <vListInitialise>
    360a:	49 ff ff 9b 	jal 3540 <vPortExitCritical>
    360e:	84 01       	movi55 $r0,#0x1
    3610:	3a 6f a0 84 	lmw.bim $r6,[$sp],$r8,#0x2    ! {$r6~$r8, $lp}
    3614:	dd 9e       	ret5 $lp

00003616 <xQueueGenericCreate>:
    3616:	3a 6f a8 bc 	smw.adm $r6,[$sp],$r10,#0x2    ! {$r6~$r10, $lp}
    361a:	80 e0       	mov55 $r7,$r0
    361c:	c0 20       	beqz38 $r0,365c <xQueueGenericCreate+0x46>
    361e:	81 01       	mov55 $r8,$r1
    3620:	81 22       	mov55 $r9,$r2
    3622:	44 00 00 54 	movi $r0,#0x54
    3626:	49 ff fc e1 	jal 2fe8 <pvPortMalloc>
    362a:	80 c0       	mov55 $r6,$r0
    362c:	c0 19       	beqz38 $r0,365e <xQueueGenericCreate+0x48>
    362e:	42 03 a0 24 	mul $r0,$r7,$r8
    3632:	8c 01       	addi45 $r0,#0x1
    3634:	49 ff fc da 	jal 2fe8 <pvPortMalloc>
    3638:	b6 06       	swi450 $r0,[$r6]
    363a:	c0 0c       	beqz38 $r0,3652 <xQueueGenericCreate+0x3c>
    363c:	14 73 00 0f 	swi $r7,[$r6+#0x3c]
    3640:	14 83 00 10 	swi $r8,[$r6+#0x40]
    3644:	80 06       	mov55 $r0,$r6
    3646:	84 21       	movi55 $r1,#0x1
    3648:	49 ff ff a9 	jal 359a <xQueueGenericReset>
    364c:	10 93 00 50 	sbi $r9,[$r6+#0x50]
    3650:	d5 07       	j8 365e <xQueueGenericCreate+0x48>
    3652:	80 06       	mov55 $r0,$r6
    3654:	49 ff fd 98 	jal 3184 <vPortFree>
    3658:	84 c0       	movi55 $r6,#0x0
    365a:	d5 02       	j8 365e <xQueueGenericCreate+0x48>
    365c:	84 c0       	movi55 $r6,#0x0
    365e:	ce 08       	bnez38 $r6,366e <xQueueGenericCreate+0x58>
    3660:	64 02 00 02 	mfsr $r0,$psw
    3664:	3c 0f eb a2 	swi.gp $r0,[+#-20856]
    3668:	49 00 20 e6 	jal 7834 <GIE_DISABLE>
    366c:	d5 00       	j8 366c <xQueueGenericCreate+0x56>
    366e:	80 06       	mov55 $r0,$r6
    3670:	3a 6f a8 84 	lmw.bim $r6,[$sp],$r10,#0x2    ! {$r6~$r10, $lp}
    3674:	dd 9e       	ret5 $lp

00003676 <prvResetNextTaskUnblockTime>:
    3676:	3c 0d eb bc 	lwi.gp $r0,[+#-20752]
    367a:	b4 00       	lwi450 $r0,[$r0]
    367c:	c8 03       	bnez38 $r0,3682 <prvResetNextTaskUnblockTime+0xc>
    367e:	84 01       	movi55 $r0,#0x1
    3680:	d5 02       	j8 3684 <prvResetNextTaskUnblockTime+0xe>
    3682:	84 00       	movi55 $r0,#0x0
    3684:	c0 05       	beqz38 $r0,368e <prvResetNextTaskUnblockTime+0x18>
    3686:	84 1f       	movi55 $r0,#-1
    3688:	3c 0f ea 3a 	swi.gp $r0,[+#-22296]
    368c:	dd 9e       	ret5 $lp
    368e:	3c 0d eb bc 	lwi.gp $r0,[+#-20752]
    3692:	a0 03       	lwi333 $r0,[$r0+#0xc]
    3694:	a0 03       	lwi333 $r0,[$r0+#0xc]
    3696:	a0 01       	lwi333 $r0,[$r0+#0x4]
    3698:	3c 0f ea 3a 	swi.gp $r0,[+#-22296]
    369c:	dd 9e       	ret5 $lp

0000369e <prvDeleteTCB>:
    369e:	3a 6f 98 bc 	smw.adm $r6,[$sp],$r6,#0x2    ! {$r6, $lp}
    36a2:	80 c0       	mov55 $r6,$r0
    36a4:	04 00 00 0c 	lwi $r0,[$r0+#0x30]
    36a8:	49 ff fd 6e 	jal 3184 <vPortFree>
    36ac:	80 06       	mov55 $r0,$r6
    36ae:	49 ff fd 6b 	jal 3184 <vPortFree>
    36b2:	3a 6f 98 84 	lmw.bim $r6,[$sp],$r6,#0x2    ! {$r6, $lp}
    36b6:	dd 9e       	ret5 $lp

000036b8 <prvAllocateTCBAndStack>:
    36b8:	3a 6f a0 bc 	smw.adm $r6,[$sp],$r8,#0x2    ! {$r6~$r8, $lp}
    36bc:	81 00       	mov55 $r8,$r0
    36be:	80 c1       	mov55 $r6,$r1
    36c0:	44 00 00 54 	movi $r0,#0x54
    36c4:	49 ff fc 92 	jal 2fe8 <pvPortMalloc>
    36c8:	80 e0       	mov55 $r7,$r0
    36ca:	c0 16       	beqz38 $r0,36f6 <prvAllocateTCBAndStack+0x3e>
    36cc:	ce 06       	bnez38 $r6,36d8 <prvAllocateTCBAndStack+0x20>
    36ce:	40 04 08 08 	slli $r0,$r8,#0x2
    36d2:	49 ff fc 8b 	jal 2fe8 <pvPortMalloc>
    36d6:	d5 02       	j8 36da <prvAllocateTCBAndStack+0x22>
    36d8:	80 06       	mov55 $r0,$r6
    36da:	14 03 80 0c 	swi $r0,[$r7+#0x30]
    36de:	c8 06       	bnez38 $r0,36ea <prvAllocateTCBAndStack+0x32>
    36e0:	80 07       	mov55 $r0,$r7
    36e2:	49 ff fd 51 	jal 3184 <vPortFree>
    36e6:	84 e0       	movi55 $r7,#0x0
    36e8:	d5 07       	j8 36f6 <prvAllocateTCBAndStack+0x3e>
    36ea:	44 10 00 a5 	movi $r1,#0xa5
    36ee:	40 24 08 08 	slli $r2,$r8,#0x2
    36f2:	49 00 50 4b 	jal d788 <memset>
    36f6:	80 07       	mov55 $r0,$r7
    36f8:	3a 6f a0 84 	lmw.bim $r6,[$sp],$r8,#0x2    ! {$r6~$r8, $lp}
    36fc:	dd 9e       	ret5 $lp

000036fe <prvInitialiseTCBVariables>:
    36fe:	3a 6f a0 bc 	smw.adm $r6,[$sp],$r8,#0x2    ! {$r6~$r8, $lp}
    3702:	80 c0       	mov55 $r6,$r0
    3704:	80 e2       	mov55 $r7,$r2
    3706:	84 60       	movi55 $r3,#0x0
    3708:	d5 0a       	j8 371c <prvInitialiseTCBVariables+0x1e>
    370a:	38 40 8c 10 	lbs $r4,[$r1+($r3<<#0x0)]
    370e:	98 33       	add333 $r0,$r6,$r3
    3710:	10 40 00 34 	sbi $r4,[$r0+#0x34]
    3714:	38 00 8c 10 	lbs $r0,[$r1+($r3<<#0x0)]
    3718:	c0 04       	beqz38 $r0,3720 <prvInitialiseTCBVariables+0x22>
    371a:	8c 61       	addi45 $r3,#0x1
    371c:	e6 70       	slti45 $r3,#0x10
    371e:	e9 f6       	bnezs8 370a <prvInitialiseTCBVariables+0xc>
    3720:	84 00       	movi55 $r0,#0x0
    3722:	10 03 00 43 	sbi $r0,[$r6+#0x43]
    3726:	e6 ea       	slti45 $r7,#0xa
    3728:	e9 02       	bnezs8 372c <prvInitialiseTCBVariables+0x2e>
    372a:	84 e9       	movi55 $r7,#0x9
    372c:	14 73 00 0b 	swi $r7,[$r6+#0x2c]
    3730:	14 73 00 13 	swi $r7,[$r6+#0x4c]
    3734:	9c 34       	addi333 $r0,$r6,#0x4
    3736:	49 ff fe 06 	jal 3342 <vListInitialiseItem>
    373a:	50 03 00 18 	addi $r0,$r6,#0x18
